	.file	"main.cpp"
	.section .rdata,"dr"
__ZStL19piecewise_construct:
	.space 1
	.section	.text$_ZNSt11char_traitsIcE7compareEPKcS2_j,"x"
	.linkonce discard
	.globl	__ZNSt11char_traitsIcE7compareEPKcS2_j
	.def	__ZNSt11char_traitsIcE7compareEPKcS2_j;	.scl	2;	.type	32;	.endef
__ZNSt11char_traitsIcE7compareEPKcS2_j:
LFB361:
	.cfi_startproc
	pushl	%ebp
	.cfi_def_cfa_offset 8
	.cfi_offset 5, -8
	movl	%esp, %ebp
	.cfi_def_cfa_register 5
	subl	$24, %esp
	cmpl	$0, 16(%ebp)
	jne	L2
	movl	$0, %eax
	jmp	L3
L2:
	movl	16(%ebp), %eax
	movl	%eax, 8(%esp)
	movl	12(%ebp), %eax
	movl	%eax, 4(%esp)
	movl	8(%ebp), %eax
	movl	%eax, (%esp)
	call	_memcmp
L3:
	leave
	.cfi_restore 5
	.cfi_def_cfa 4, 4
	ret
	.cfi_endproc
LFE361:
	.section	.text$_ZnwjPv,"x"
	.linkonce discard
	.globl	__ZnwjPv
	.def	__ZnwjPv;	.scl	2;	.type	32;	.endef
__ZnwjPv:
LFB444:
	.cfi_startproc
	pushl	%ebp
	.cfi_def_cfa_offset 8
	.cfi_offset 5, -8
	movl	%esp, %ebp
	.cfi_def_cfa_register 5
	movl	12(%ebp), %eax
	popl	%ebp
	.cfi_restore 5
	.cfi_def_cfa 4, 4
	ret
	.cfi_endproc
LFE444:
	.section	.text$_ZdlPvS_,"x"
	.linkonce discard
	.globl	__ZdlPvS_
	.def	__ZdlPvS_;	.scl	2;	.type	32;	.endef
__ZdlPvS_:
LFB446:
	.cfi_startproc
	pushl	%ebp
	.cfi_def_cfa_offset 8
	.cfi_offset 5, -8
	movl	%esp, %ebp
	.cfi_def_cfa_register 5
	nop
	popl	%ebp
	.cfi_restore 5
	.cfi_def_cfa 4, 4
	ret
	.cfi_endproc
LFE446:
	.section .rdata,"dr"
LC0:
	.ascii "stoi\0"
	.section	.text$_ZNSt7__cxx114stoiERKNS_12basic_stringIcSt11char_traitsIcESaIcEEEPji,"x"
	.linkonce discard
	.globl	__ZNSt7__cxx114stoiERKNS_12basic_stringIcSt11char_traitsIcESaIcEEEPji
	.def	__ZNSt7__cxx114stoiERKNS_12basic_stringIcSt11char_traitsIcESaIcEEEPji;	.scl	2;	.type	32;	.endef
__ZNSt7__cxx114stoiERKNS_12basic_stringIcSt11char_traitsIcESaIcEEEPji:
LFB843:
	.cfi_startproc
	pushl	%ebp
	.cfi_def_cfa_offset 8
	.cfi_offset 5, -8
	movl	%esp, %ebp
	.cfi_def_cfa_register 5
	subl	$40, %esp
	movl	8(%ebp), %ecx
	call	__ZNKSt7__cxx1112basic_stringIcSt11char_traitsIcESaIcEE5c_strEv
	movl	%eax, %edx
	movl	16(%ebp), %eax
	movl	%eax, 16(%esp)
	movl	12(%ebp), %eax
	movl	%eax, 12(%esp)
	movl	%edx, 8(%esp)
	movl	$LC0, 4(%esp)
	movl	$_strtol, (%esp)
	call	__ZN9__gnu_cxx6__stoaIlicJiEEET0_PFT_PKT1_PPS3_DpT2_EPKcS5_PjS9_
	leave
	.cfi_restore 5
	.cfi_def_cfa 4, 4
	ret
	.cfi_endproc
LFE843:
	.section	.text$_ZStorSt13_Ios_OpenmodeS_,"x"
	.linkonce discard
	.globl	__ZStorSt13_Ios_OpenmodeS_
	.def	__ZStorSt13_Ios_OpenmodeS_;	.scl	2;	.type	32;	.endef
__ZStorSt13_Ios_OpenmodeS_:
LFB1047:
	.cfi_startproc
	pushl	%ebp
	.cfi_def_cfa_offset 8
	.cfi_offset 5, -8
	movl	%esp, %ebp
	.cfi_def_cfa_register 5
	movl	8(%ebp), %eax
	orl	12(%ebp), %eax
	popl	%ebp
	.cfi_restore 5
	.cfi_def_cfa 4, 4
	ret
	.cfi_endproc
LFE1047:
.lcomm __ZStL8__ioinit,1,1
	.section .rdata,"dr"
LC1:
	.ascii "\0"
	.section	.text$_ZN8hashNodeC1Ev,"x"
	.linkonce discard
	.align 2
	.globl	__ZN8hashNodeC1Ev
	.def	__ZN8hashNodeC1Ev;	.scl	2;	.type	32;	.endef
__ZN8hashNodeC1Ev:
LFB2385:
	.cfi_startproc
	.cfi_personality 0,___gxx_personality_v0
	.cfi_lsda 0,LLSDA2385
	pushl	%ebp
	.cfi_def_cfa_offset 8
	.cfi_offset 5, -8
	movl	%esp, %ebp
	.cfi_def_cfa_register 5
	pushl	%ebx
	subl	$36, %esp
	.cfi_offset 3, -12
	movl	%ecx, -12(%ebp)
	movl	-12(%ebp), %eax
	addl	$4, %eax
	movl	%eax, %ecx
	call	__ZNSt7__cxx1112basic_stringIcSt11char_traitsIcESaIcEEC1Ev
	movl	-12(%ebp), %eax
	addl	$28, %eax
	movl	%eax, %ecx
	call	__ZNSt6vectorI8heapNodeSaIS0_EEC1Ev
	movl	-12(%ebp), %eax
	movl	$0, (%eax)
	movl	-12(%ebp), %eax
	addl	$4, %eax
	movl	$LC1, (%esp)
	movl	%eax, %ecx
LEHB0:
	call	__ZNSt7__cxx1112basic_stringIcSt11char_traitsIcESaIcEEaSEPKc
LEHE0:
	subl	$4, %esp
	jmp	L14
L13:
	movl	%eax, %ebx
	movl	-12(%ebp), %eax
	addl	$28, %eax
	movl	%eax, %ecx
	call	__ZNSt6vectorI8heapNodeSaIS0_EED1Ev
	movl	-12(%ebp), %eax
	addl	$4, %eax
	movl	%eax, %ecx
	call	__ZNSt7__cxx1112basic_stringIcSt11char_traitsIcESaIcEED1Ev
	movl	%ebx, %eax
	movl	%eax, (%esp)
LEHB1:
	call	__Unwind_Resume
LEHE1:
L14:
	movl	-4(%ebp), %ebx
	leave
	.cfi_restore 5
	.cfi_restore 3
	.cfi_def_cfa 4, 4
	ret
	.cfi_endproc
LFE2385:
	.def	___gxx_personality_v0;	.scl	2;	.type	32;	.endef
	.section	.gcc_except_table,"w"
LLSDA2385:
	.byte	0xff
	.byte	0xff
	.byte	0x1
	.uleb128 LLSDACSE2385-LLSDACSB2385
LLSDACSB2385:
	.uleb128 LEHB0-LFB2385
	.uleb128 LEHE0-LEHB0
	.uleb128 L13-LFB2385
	.uleb128 0
	.uleb128 LEHB1-LFB2385
	.uleb128 LEHE1-LEHB1
	.uleb128 0
	.uleb128 0
LLSDACSE2385:
	.section	.text$_ZN8hashNodeC1Ev,"x"
	.linkonce discard
	.section .rdata,"dr"
	.align 4
LC2:
	.ascii "Error, invalid increment. User inpt. not stored.\0"
	.text
	.align 2
	.globl	__ZN8hashNode10increCloseEi
	.def	__ZN8hashNode10increCloseEi;	.scl	2;	.type	32;	.endef
__ZN8hashNode10increCloseEi:
LFB2386:
	.cfi_startproc
	pushl	%ebp
	.cfi_def_cfa_offset 8
	.cfi_offset 5, -8
	movl	%esp, %ebp
	.cfi_def_cfa_register 5
	subl	$40, %esp
	movl	%ecx, -12(%ebp)
	cmpl	$0, 8(%ebp)
	jg	L16
	movl	$LC2, 4(%esp)
	movl	$__ZSt4cout, (%esp)
	call	__ZStlsISt11char_traitsIcEERSt13basic_ostreamIcT_ES5_PKc
	movl	$__ZSt4endlIcSt11char_traitsIcEERSt13basic_ostreamIT_T0_ES6_, (%esp)
	movl	%eax, %ecx
	call	__ZNSolsEPFRSoS_E
	subl	$4, %esp
	jmp	L15
L16:
	movl	8(%ebp), %eax
	movl	-12(%ebp), %edx
	addl	$28, %edx
	movl	%eax, (%esp)
	movl	%edx, %ecx
	call	__ZNSt6vectorI8heapNodeSaIS0_EEixEj
	subl	$4, %esp
	movl	24(%eax), %edx
	addl	$1, %edx
	movl	%edx, 24(%eax)
	nop
L15:
	leave
	.cfi_restore 5
	.cfi_def_cfa 4, 4
	ret	$4
	.cfi_endproc
LFE2386:
	.section	.text$_ZN8heapNodeC1Ev,"x"
	.linkonce discard
	.align 2
	.globl	__ZN8heapNodeC1Ev
	.def	__ZN8heapNodeC1Ev;	.scl	2;	.type	32;	.endef
__ZN8heapNodeC1Ev:
LFB2390:
	.cfi_startproc
	pushl	%ebp
	.cfi_def_cfa_offset 8
	.cfi_offset 5, -8
	movl	%esp, %ebp
	.cfi_def_cfa_register 5
	subl	$24, %esp
	movl	%ecx, -12(%ebp)
	movl	-12(%ebp), %eax
	movl	%eax, %ecx
	call	__ZNSt7__cxx1112basic_stringIcSt11char_traitsIcESaIcEEC1Ev
	nop
	leave
	.cfi_restore 5
	.cfi_def_cfa 4, 4
	ret
	.cfi_endproc
LFE2390:
	.section	.text$_ZN8heapNodeD1Ev,"x"
	.linkonce discard
	.align 2
	.globl	__ZN8heapNodeD1Ev
	.def	__ZN8heapNodeD1Ev;	.scl	2;	.type	32;	.endef
__ZN8heapNodeD1Ev:
LFB2393:
	.cfi_startproc
	pushl	%ebp
	.cfi_def_cfa_offset 8
	.cfi_offset 5, -8
	movl	%esp, %ebp
	.cfi_def_cfa_register 5
	subl	$24, %esp
	movl	%ecx, -12(%ebp)
	movl	-12(%ebp), %eax
	movl	%eax, %ecx
	call	__ZNSt7__cxx1112basic_stringIcSt11char_traitsIcESaIcEED1Ev
	nop
	leave
	.cfi_restore 5
	.cfi_def_cfa 4, 4
	ret
	.cfi_endproc
LFE2393:
	.section .rdata,"dr"
LC3:
	.ascii "Placehodler\0"
	.text
	.align 2
	.globl	__ZN8hashNode6addSynENSt7__cxx1112basic_stringIcSt11char_traitsIcESaIcEEEii
	.def	__ZN8hashNode6addSynENSt7__cxx1112basic_stringIcSt11char_traitsIcESaIcEEEii;	.scl	2;	.type	32;	.endef
__ZN8hashNode6addSynENSt7__cxx1112basic_stringIcSt11char_traitsIcESaIcEEEii:
LFB2387:
	.cfi_startproc
	.cfi_personality 0,___gxx_personality_v0
	.cfi_lsda 0,LLSDA2387
	pushl	%ebp
	.cfi_def_cfa_offset 8
	.cfi_offset 5, -8
	movl	%esp, %ebp
	.cfi_def_cfa_register 5
	pushl	%ebx
	subl	$84, %esp
	.cfi_offset 3, -12
	movl	%ecx, -60(%ebp)
	movl	-60(%ebp), %eax
	addl	$28, %eax
	movl	%eax, %ecx
	call	__ZNKSt6vectorI8heapNodeSaIS0_EE4sizeEv
	testl	%eax, %eax
	sete	%al
	testb	%al, %al
	je	L21
	leal	-52(%ebp), %eax
	movl	%eax, %ecx
	call	__ZN8heapNodeC1Ev
	leal	-52(%ebp), %eax
	movl	$LC3, (%esp)
	movl	%eax, %ecx
LEHB2:
	call	__ZNSt7__cxx1112basic_stringIcSt11char_traitsIcESaIcEEaSEPKc
	subl	$4, %esp
	movl	$0, -28(%ebp)
	movl	$0, -24(%ebp)
	movl	-60(%ebp), %eax
	leal	28(%eax), %edx
	leal	-52(%ebp), %eax
	movl	%eax, (%esp)
	movl	%edx, %ecx
	call	__ZNSt6vectorI8heapNodeSaIS0_EE9push_backERKS0_
LEHE2:
	subl	$4, %esp
	leal	-52(%ebp), %eax
	movl	%eax, %ecx
	call	__ZN8heapNodeD1Ev
L21:
	movl	$0, -12(%ebp)
L23:
	movl	8(%ebp), %ecx
	call	__ZNKSt7__cxx1112basic_stringIcSt11char_traitsIcESaIcEE6lengthEv
	movl	%eax, %edx
	movl	-12(%ebp), %eax
	cmpl	%eax, %edx
	seta	%al
	testb	%al, %al
	je	L22
	movl	-12(%ebp), %eax
	movl	%eax, (%esp)
	movl	8(%ebp), %ecx
LEHB3:
	call	__ZNSt7__cxx1112basic_stringIcSt11char_traitsIcESaIcEEixEj
	subl	$4, %esp
	movl	%eax, %ebx
	movl	-12(%ebp), %eax
	movl	%eax, (%esp)
	movl	8(%ebp), %ecx
	call	__ZNSt7__cxx1112basic_stringIcSt11char_traitsIcESaIcEEixEj
	subl	$4, %esp
	movzbl	(%eax), %eax
	movsbl	%al, %eax
	movl	%eax, (%esp)
	call	_tolower
	movb	%al, (%ebx)
	addl	$1, -12(%ebp)
	jmp	L23
L22:
	movl	$1, -16(%ebp)
L27:
	movl	-60(%ebp), %eax
	addl	$28, %eax
	movl	%eax, %ecx
	call	__ZNKSt6vectorI8heapNodeSaIS0_EE4sizeEv
	movl	%eax, %edx
	movl	-16(%ebp), %eax
	cmpl	%eax, %edx
	seta	%al
	testb	%al, %al
	je	L24
	movl	-16(%ebp), %eax
	movl	-60(%ebp), %edx
	addl	$28, %edx
	movl	%eax, (%esp)
	movl	%edx, %ecx
	call	__ZNSt6vectorI8heapNodeSaIS0_EEixEj
	subl	$4, %esp
	movl	%eax, %edx
	movl	8(%ebp), %eax
	movl	%eax, 4(%esp)
	movl	%edx, (%esp)
	call	__ZSteqIcEN9__gnu_cxx11__enable_ifIXsrSt9__is_charIT_E7__valueEbE6__typeERKNSt7__cxx1112basic_stringIS3_St11char_traitsIS3_ESaIS3_EEESE_
	testb	%al, %al
	je	L25
	movl	-16(%ebp), %eax
	movl	-60(%ebp), %edx
	addl	$28, %edx
	movl	%eax, (%esp)
	movl	%edx, %ecx
	call	__ZNSt6vectorI8heapNodeSaIS0_EEixEj
	subl	$4, %esp
	movl	24(%eax), %edx
	addl	$1, %edx
	movl	%edx, 24(%eax)
	movl	-60(%ebp), %eax
	movl	-16(%ebp), %edx
	movl	%edx, (%esp)
	movl	%eax, %ecx
	call	__ZN8hashNode12repairUpwardEi
	subl	$4, %esp
	jmp	L20
L25:
	addl	$1, -16(%ebp)
	jmp	L27
L24:
	movl	$32, (%esp)
	call	__Znwj
	movl	%eax, %ebx
	movl	%ebx, %ecx
	call	__ZN8heapNodeC1Ev
	movl	%ebx, -20(%ebp)
	movl	-20(%ebp), %eax
	movl	8(%ebp), %edx
	movl	%edx, (%esp)
	movl	%eax, %ecx
	call	__ZNSt7__cxx1112basic_stringIcSt11char_traitsIcESaIcEEaSERKS4_
	subl	$4, %esp
	movl	-20(%ebp), %eax
	movl	12(%ebp), %edx
	movl	%edx, 24(%eax)
	movl	-20(%ebp), %eax
	movl	16(%ebp), %edx
	movl	%edx, 28(%eax)
	movl	-60(%ebp), %eax
	leal	28(%eax), %edx
	movl	-20(%ebp), %eax
	movl	%eax, (%esp)
	movl	%edx, %ecx
	call	__ZNSt6vectorI8heapNodeSaIS0_EE9push_backERKS0_
	subl	$4, %esp
	movl	-60(%ebp), %eax
	addl	$28, %eax
	movl	%eax, %ecx
	call	__ZNKSt6vectorI8heapNodeSaIS0_EE4sizeEv
	subl	$1, %eax
	movl	%eax, %edx
	movl	-60(%ebp), %eax
	movl	%edx, (%esp)
	movl	%eax, %ecx
	call	__ZN8hashNode12repairUpwardEi
	subl	$4, %esp
	nop
	jmp	L20
L29:
	movl	%eax, %ebx
	leal	-52(%ebp), %eax
	movl	%eax, %ecx
	call	__ZN8heapNodeD1Ev
	movl	%ebx, %eax
	movl	%eax, (%esp)
	call	__Unwind_Resume
LEHE3:
L20:
	movl	-4(%ebp), %ebx
	leave
	.cfi_restore 5
	.cfi_restore 3
	.cfi_def_cfa 4, 4
	ret	$12
	.cfi_endproc
LFE2387:
	.section	.gcc_except_table,"w"
LLSDA2387:
	.byte	0xff
	.byte	0xff
	.byte	0x1
	.uleb128 LLSDACSE2387-LLSDACSB2387
LLSDACSB2387:
	.uleb128 LEHB2-LFB2387
	.uleb128 LEHE2-LEHB2
	.uleb128 L29-LFB2387
	.uleb128 0
	.uleb128 LEHB3-LFB2387
	.uleb128 LEHE3-LEHB3
	.uleb128 0
	.uleb128 0
LLSDACSE2387:
	.text
	.align 2
	.globl	__ZN8hashNode4swapEP8heapNodeS1_
	.def	__ZN8hashNode4swapEP8heapNodeS1_;	.scl	2;	.type	32;	.endef
__ZN8hashNode4swapEP8heapNodeS1_:
LFB2394:
	.cfi_startproc
	pushl	%ebp
	.cfi_def_cfa_offset 8
	.cfi_offset 5, -8
	movl	%esp, %ebp
	.cfi_def_cfa_register 5
	pushl	%ebx
	subl	$52, %esp
	.cfi_offset 3, -12
	movl	%ecx, -28(%ebp)
	movl	$32, (%esp)
	call	__Znwj
	movl	%eax, %ebx
	movl	%ebx, %ecx
	call	__ZN8heapNodeC1Ev
	movl	%ebx, -12(%ebp)
	movl	12(%ebp), %edx
	movl	-12(%ebp), %eax
	movl	%edx, (%esp)
	movl	%eax, %ecx
	call	__ZNSt7__cxx1112basic_stringIcSt11char_traitsIcESaIcEEaSERKS4_
	subl	$4, %esp
	movl	12(%ebp), %eax
	movl	24(%eax), %edx
	movl	-12(%ebp), %eax
	movl	%edx, 24(%eax)
	movl	12(%ebp), %eax
	movl	28(%eax), %edx
	movl	-12(%ebp), %eax
	movl	%edx, 28(%eax)
	movl	8(%ebp), %edx
	movl	12(%ebp), %eax
	movl	%edx, (%esp)
	movl	%eax, %ecx
	call	__ZNSt7__cxx1112basic_stringIcSt11char_traitsIcESaIcEEaSERKS4_
	subl	$4, %esp
	movl	8(%ebp), %eax
	movl	24(%eax), %edx
	movl	12(%ebp), %eax
	movl	%edx, 24(%eax)
	movl	8(%ebp), %eax
	movl	28(%eax), %edx
	movl	12(%ebp), %eax
	movl	%edx, 28(%eax)
	movl	-12(%ebp), %edx
	movl	8(%ebp), %eax
	movl	%edx, (%esp)
	movl	%eax, %ecx
	call	__ZNSt7__cxx1112basic_stringIcSt11char_traitsIcESaIcEEaSERKS4_
	subl	$4, %esp
	movl	-12(%ebp), %eax
	movl	24(%eax), %edx
	movl	8(%ebp), %eax
	movl	%edx, 24(%eax)
	movl	-12(%ebp), %eax
	movl	28(%eax), %edx
	movl	8(%ebp), %eax
	movl	%edx, 28(%eax)
	movl	-12(%ebp), %ebx
	testl	%ebx, %ebx
	je	L33
	movl	%ebx, %ecx
	call	__ZN8heapNodeD1Ev
	movl	$32, 4(%esp)
	movl	%ebx, (%esp)
	call	__ZdlPvj
	nop
L33:
	nop
	movl	-4(%ebp), %ebx
	leave
	.cfi_restore 5
	.cfi_restore 3
	.cfi_def_cfa 4, 4
	ret	$8
	.cfi_endproc
LFE2394:
	.align 2
	.globl	__ZN8hashNode14repairDownwardEi
	.def	__ZN8hashNode14repairDownwardEi;	.scl	2;	.type	32;	.endef
__ZN8hashNode14repairDownwardEi:
LFB2395:
	.cfi_startproc
	pushl	%ebp
	.cfi_def_cfa_offset 8
	.cfi_offset 5, -8
	movl	%esp, %ebp
	.cfi_def_cfa_register 5
	pushl	%ebx
	subl	$52, %esp
	.cfi_offset 3, -12
	movl	%ecx, -28(%ebp)
	movl	-28(%ebp), %eax
	addl	$28, %eax
	movl	%eax, %ecx
	call	__ZNKSt6vectorI8heapNodeSaIS0_EE4sizeEv
	movl	%eax, %edx
	movl	8(%ebp), %eax
	cmpl	%eax, %edx
	jbe	L35
	cmpl	$0, 8(%ebp)
	jg	L36
L35:
	movl	$1, %eax
	jmp	L37
L36:
	movl	$0, %eax
L37:
	testb	%al, %al
	jne	L46
	movl	8(%ebp), %eax
	addl	%eax, %eax
	movl	%eax, -16(%ebp)
	movl	8(%ebp), %eax
	addl	%eax, %eax
	addl	$1, %eax
	movl	%eax, -20(%ebp)
	movl	-28(%ebp), %eax
	addl	$28, %eax
	movl	%eax, %ecx
	call	__ZNKSt6vectorI8heapNodeSaIS0_EE4sizeEv
	movl	%eax, %edx
	movl	-16(%ebp), %eax
	cmpl	%eax, %edx
	setbe	%al
	testb	%al, %al
	jne	L47
	movl	-28(%ebp), %eax
	addl	$28, %eax
	movl	%eax, %ecx
	call	__ZNKSt6vectorI8heapNodeSaIS0_EE4sizeEv
	movl	%eax, %edx
	movl	-20(%ebp), %eax
	cmpl	%eax, %edx
	setbe	%al
	testb	%al, %al
	je	L41
	movl	8(%ebp), %eax
	movl	-28(%ebp), %edx
	addl	$28, %edx
	movl	%eax, (%esp)
	movl	%edx, %ecx
	call	__ZNSt6vectorI8heapNodeSaIS0_EEixEj
	subl	$4, %esp
	movl	24(%eax), %ebx
	movl	-16(%ebp), %eax
	movl	-28(%ebp), %edx
	addl	$28, %edx
	movl	%eax, (%esp)
	movl	%edx, %ecx
	call	__ZNSt6vectorI8heapNodeSaIS0_EEixEj
	subl	$4, %esp
	movl	24(%eax), %eax
	cmpl	%eax, %ebx
	setl	%al
	testb	%al, %al
	je	L48
	movl	-16(%ebp), %eax
	movl	-28(%ebp), %edx
	addl	$28, %edx
	movl	%eax, (%esp)
	movl	%edx, %ecx
	call	__ZNSt6vectorI8heapNodeSaIS0_EEixEj
	subl	$4, %esp
	movl	%eax, %ebx
	movl	8(%ebp), %eax
	movl	-28(%ebp), %edx
	addl	$28, %edx
	movl	%eax, (%esp)
	movl	%edx, %ecx
	call	__ZNSt6vectorI8heapNodeSaIS0_EEixEj
	subl	$4, %esp
	movl	%eax, %edx
	movl	-28(%ebp), %eax
	movl	%ebx, 4(%esp)
	movl	%edx, (%esp)
	movl	%eax, %ecx
	call	__ZN8hashNode4swapEP8heapNodeS1_
	subl	$8, %esp
	jmp	L48
L41:
	movl	8(%ebp), %eax
	movl	%eax, -12(%ebp)
	movl	-16(%ebp), %eax
	movl	-28(%ebp), %edx
	addl	$28, %edx
	movl	%eax, (%esp)
	movl	%edx, %ecx
	call	__ZNSt6vectorI8heapNodeSaIS0_EEixEj
	subl	$4, %esp
	movl	24(%eax), %ebx
	movl	8(%ebp), %eax
	movl	-28(%ebp), %edx
	addl	$28, %edx
	movl	%eax, (%esp)
	movl	%edx, %ecx
	call	__ZNSt6vectorI8heapNodeSaIS0_EEixEj
	subl	$4, %esp
	movl	24(%eax), %eax
	cmpl	%eax, %ebx
	setg	%al
	testb	%al, %al
	je	L43
	movl	-16(%ebp), %eax
	movl	%eax, -12(%ebp)
	movl	-20(%ebp), %eax
	movl	-28(%ebp), %edx
	addl	$28, %edx
	movl	%eax, (%esp)
	movl	%edx, %ecx
	call	__ZNSt6vectorI8heapNodeSaIS0_EEixEj
	subl	$4, %esp
	movl	24(%eax), %ebx
	movl	-16(%ebp), %eax
	movl	-28(%ebp), %edx
	addl	$28, %edx
	movl	%eax, (%esp)
	movl	%edx, %ecx
	call	__ZNSt6vectorI8heapNodeSaIS0_EEixEj
	subl	$4, %esp
	movl	24(%eax), %eax
	cmpl	%eax, %ebx
	setg	%al
	testb	%al, %al
	je	L44
	movl	-20(%ebp), %eax
	movl	%eax, -12(%ebp)
	jmp	L44
L43:
	movl	-20(%ebp), %eax
	movl	-28(%ebp), %edx
	addl	$28, %edx
	movl	%eax, (%esp)
	movl	%edx, %ecx
	call	__ZNSt6vectorI8heapNodeSaIS0_EEixEj
	subl	$4, %esp
	movl	24(%eax), %ebx
	movl	8(%ebp), %eax
	movl	-28(%ebp), %edx
	addl	$28, %edx
	movl	%eax, (%esp)
	movl	%edx, %ecx
	call	__ZNSt6vectorI8heapNodeSaIS0_EEixEj
	subl	$4, %esp
	movl	24(%eax), %eax
	cmpl	%eax, %ebx
	setg	%al
	testb	%al, %al
	je	L44
	movl	-20(%ebp), %eax
	movl	%eax, -12(%ebp)
L44:
	movl	-12(%ebp), %eax
	cmpl	8(%ebp), %eax
	je	L49
	movl	-12(%ebp), %eax
	movl	-28(%ebp), %edx
	addl	$28, %edx
	movl	%eax, (%esp)
	movl	%edx, %ecx
	call	__ZNSt6vectorI8heapNodeSaIS0_EEixEj
	subl	$4, %esp
	movl	%eax, %ebx
	movl	8(%ebp), %eax
	movl	-28(%ebp), %edx
	addl	$28, %edx
	movl	%eax, (%esp)
	movl	%edx, %ecx
	call	__ZNSt6vectorI8heapNodeSaIS0_EEixEj
	subl	$4, %esp
	movl	%eax, %edx
	movl	-28(%ebp), %eax
	movl	%ebx, 4(%esp)
	movl	%edx, (%esp)
	movl	%eax, %ecx
	call	__ZN8hashNode4swapEP8heapNodeS1_
	subl	$8, %esp
	movl	-12(%ebp), %eax
	movl	%eax, 8(%ebp)
	movl	-28(%ebp), %eax
	movl	-12(%ebp), %edx
	movl	%edx, (%esp)
	movl	%eax, %ecx
	call	__ZN8hashNode14repairDownwardEi
	subl	$4, %esp
	nop
	jmp	L34
L46:
	nop
	jmp	L34
L47:
	nop
	jmp	L34
L48:
	nop
	jmp	L34
L49:
	nop
L34:
	movl	-4(%ebp), %ebx
	leave
	.cfi_restore 5
	.cfi_restore 3
	.cfi_def_cfa 4, 4
	ret	$4
	.cfi_endproc
LFE2395:
	.section .rdata,"dr"
LC4:
	.ascii "How did this happen?\0"
LC5:
	.ascii "Error, no value to swap.\0"
	.text
	.align 2
	.globl	__ZN8hashNode12repairUpwardEi
	.def	__ZN8hashNode12repairUpwardEi;	.scl	2;	.type	32;	.endef
__ZN8hashNode12repairUpwardEi:
LFB2396:
	.cfi_startproc
	pushl	%ebp
	.cfi_def_cfa_offset 8
	.cfi_offset 5, -8
	movl	%esp, %ebp
	.cfi_def_cfa_register 5
	subl	$56, %esp
	movl	%ecx, -28(%ebp)
	cmpl	$0, 8(%ebp)
	jg	L51
	movl	$LC4, 4(%esp)
	movl	$__ZSt4cout, (%esp)
	call	__ZStlsISt11char_traitsIcEERSt13basic_ostreamIcT_ES5_PKc
	movl	$__ZSt4endlIcSt11char_traitsIcEERSt13basic_ostreamIT_T0_ES6_, (%esp)
	movl	%eax, %ecx
	call	__ZNSolsEPFRSoS_E
	subl	$4, %esp
	jmp	L50
L51:
	cmpl	$1, 8(%ebp)
	je	L58
	movl	-28(%ebp), %eax
	addl	$28, %eax
	movl	%eax, %ecx
	call	__ZNKSt6vectorI8heapNodeSaIS0_EE4sizeEv
	movl	%eax, %edx
	movl	8(%ebp), %eax
	cmpl	%eax, %edx
	setb	%al
	testb	%al, %al
	je	L54
	movl	$LC5, 4(%esp)
	movl	$__ZSt4cout, (%esp)
	call	__ZStlsISt11char_traitsIcEERSt13basic_ostreamIcT_ES5_PKc
	movl	$__ZSt4endlIcSt11char_traitsIcEERSt13basic_ostreamIT_T0_ES6_, (%esp)
	movl	%eax, %ecx
	call	__ZNSolsEPFRSoS_E
	subl	$4, %esp
	jmp	L50
L54:
	movl	8(%ebp), %eax
	movl	-28(%ebp), %edx
	addl	$28, %edx
	movl	%eax, (%esp)
	movl	%edx, %ecx
	call	__ZNSt6vectorI8heapNodeSaIS0_EEixEj
	subl	$4, %esp
	movl	%eax, -12(%ebp)
	movl	8(%ebp), %eax
	andl	$1, %eax
	testl	%eax, %eax
	je	L55
	movl	8(%ebp), %eax
	subl	$1, %eax
	movl	%eax, %edx
	shrl	$31, %edx
	addl	%edx, %eax
	sarl	%eax
	movl	%eax, 8(%ebp)
	jmp	L56
L55:
	movl	8(%ebp), %eax
	movl	%eax, %edx
	shrl	$31, %edx
	addl	%edx, %eax
	sarl	%eax
	movl	%eax, 8(%ebp)
L56:
	movl	8(%ebp), %eax
	movl	-28(%ebp), %edx
	addl	$28, %edx
	movl	%eax, (%esp)
	movl	%edx, %ecx
	call	__ZNSt6vectorI8heapNodeSaIS0_EEixEj
	subl	$4, %esp
	movl	%eax, -16(%ebp)
	movl	-12(%ebp), %eax
	movl	24(%eax), %edx
	movl	-16(%ebp), %eax
	movl	24(%eax), %eax
	cmpl	%eax, %edx
	jle	L59
	movl	-28(%ebp), %eax
	movl	-16(%ebp), %edx
	movl	%edx, 4(%esp)
	movl	-12(%ebp), %edx
	movl	%edx, (%esp)
	movl	%eax, %ecx
	call	__ZN8hashNode4swapEP8heapNodeS1_
	subl	$8, %esp
	movl	-28(%ebp), %eax
	movl	8(%ebp), %edx
	movl	%edx, (%esp)
	movl	%eax, %ecx
	call	__ZN8hashNode12repairUpwardEi
	subl	$4, %esp
	nop
	jmp	L59
L58:
	nop
	jmp	L50
L59:
	nop
L50:
	leave
	.cfi_restore 5
	.cfi_def_cfa 4, 4
	ret	$4
	.cfi_endproc
LFE2396:
	.section .rdata,"dr"
LC6:
	.ascii ":\11\0"
LC7:
	.ascii " -> \0"
	.section	.text$_ZN7hashLib14printHashTableEv,"x"
	.linkonce discard
	.align 2
	.globl	__ZN7hashLib14printHashTableEv
	.def	__ZN7hashLib14printHashTableEv;	.scl	2;	.type	32;	.endef
__ZN7hashLib14printHashTableEv:
LFB2397:
	.cfi_startproc
	pushl	%ebp
	.cfi_def_cfa_offset 8
	.cfi_offset 5, -8
	movl	%esp, %ebp
	.cfi_def_cfa_register 5
	pushl	%ebx
	subl	$52, %esp
	.cfi_offset 3, -12
	movl	%ecx, -28(%ebp)
	movl	$0, -12(%ebp)
L65:
	movl	-28(%ebp), %eax
	movl	4(%eax), %eax
	cmpl	-12(%ebp), %eax
	jle	L66
	movl	-12(%ebp), %eax
	movl	%eax, (%esp)
	movl	$__ZSt4cout, %ecx
	call	__ZNSolsEi
	subl	$4, %esp
	movl	$LC6, 4(%esp)
	movl	%eax, (%esp)
	call	__ZStlsISt11char_traitsIcEERSt13basic_ostreamIcT_ES5_PKc
	movl	$__ZSt5flushIcSt11char_traitsIcEERSt13basic_ostreamIT_T0_ES6_, (%esp)
	movl	%eax, %ecx
	call	__ZNSolsEPFRSoS_E
	subl	$4, %esp
	movl	-28(%ebp), %eax
	movl	(%eax), %ecx
	movl	-12(%ebp), %edx
	movl	%edx, %eax
	sall	$2, %eax
	addl	%edx, %eax
	sall	$3, %eax
	addl	%ecx, %eax
	addl	$4, %eax
	movl	$LC1, 4(%esp)
	movl	%eax, (%esp)
	call	__ZStneIcSt11char_traitsIcESaIcEEbRKNSt7__cxx1112basic_stringIT_T0_T1_EEPKS5_
	testb	%al, %al
	je	L62
	movl	-28(%ebp), %eax
	movl	(%eax), %ecx
	movl	-12(%ebp), %edx
	movl	%edx, %eax
	sall	$2, %eax
	addl	%edx, %eax
	sall	$3, %eax
	addl	%ecx, %eax
	addl	$4, %eax
	movl	%eax, 4(%esp)
	movl	$__ZSt4cout, (%esp)
	call	__ZStlsIcSt11char_traitsIcESaIcEERSt13basic_ostreamIT_T0_ES7_RKNSt7__cxx1112basic_stringIS4_S5_T1_EE
	movl	$__ZSt5flushIcSt11char_traitsIcEERSt13basic_ostreamIT_T0_ES6_, (%esp)
	movl	%eax, %ecx
	call	__ZNSolsEPFRSoS_E
	subl	$4, %esp
	movl	-28(%ebp), %eax
	movl	(%eax), %ecx
	movl	-12(%ebp), %edx
	movl	%edx, %eax
	sall	$2, %eax
	addl	%edx, %eax
	sall	$3, %eax
	addl	%ecx, %eax
	movl	(%eax), %eax
	movl	%eax, -16(%ebp)
L64:
	cmpl	$0, -16(%ebp)
	je	L62
	movl	-16(%ebp), %eax
	leal	4(%eax), %ebx
	movl	$LC7, 4(%esp)
	movl	$__ZSt4cout, (%esp)
	call	__ZStlsISt11char_traitsIcEERSt13basic_ostreamIcT_ES5_PKc
	movl	%ebx, 4(%esp)
	movl	%eax, (%esp)
	call	__ZStlsIcSt11char_traitsIcESaIcEERSt13basic_ostreamIT_T0_ES7_RKNSt7__cxx1112basic_stringIS4_S5_T1_EE
	movl	$__ZSt5flushIcSt11char_traitsIcEERSt13basic_ostreamIT_T0_ES6_, (%esp)
	movl	%eax, %ecx
	call	__ZNSolsEPFRSoS_E
	subl	$4, %esp
	movl	-16(%ebp), %eax
	movl	(%eax), %eax
	movl	%eax, -16(%ebp)
	jmp	L64
L62:
	movl	$__ZSt4endlIcSt11char_traitsIcEERSt13basic_ostreamIT_T0_ES6_, (%esp)
	movl	$__ZSt4cout, %ecx
	call	__ZNSolsEPFRSoS_E
	subl	$4, %esp
	addl	$1, -12(%ebp)
	jmp	L65
L66:
	nop
	movl	-4(%ebp), %ebx
	leave
	.cfi_restore 5
	.cfi_restore 3
	.cfi_def_cfa 4, 4
	ret
	.cfi_endproc
LFE2397:
	.section	.text$_ZN8hashNodeD1Ev,"x"
	.linkonce discard
	.align 2
	.globl	__ZN8hashNodeD1Ev
	.def	__ZN8hashNodeD1Ev;	.scl	2;	.type	32;	.endef
__ZN8hashNodeD1Ev:
LFB2401:
	.cfi_startproc
	pushl	%ebp
	.cfi_def_cfa_offset 8
	.cfi_offset 5, -8
	movl	%esp, %ebp
	.cfi_def_cfa_register 5
	subl	$24, %esp
	movl	%ecx, -12(%ebp)
	movl	-12(%ebp), %eax
	addl	$28, %eax
	movl	%eax, %ecx
	call	__ZNSt6vectorI8heapNodeSaIS0_EED1Ev
	movl	-12(%ebp), %eax
	addl	$4, %eax
	movl	%eax, %ecx
	call	__ZNSt7__cxx1112basic_stringIcSt11char_traitsIcESaIcEED1Ev
	nop
	leave
	.cfi_restore 5
	.cfi_def_cfa 4, 4
	ret
	.cfi_endproc
LFE2401:
	.text
	.align 2
	.globl	__ZN7hashLibC2Ei
	.def	__ZN7hashLibC2Ei;	.scl	2;	.type	32;	.endef
__ZN7hashLibC2Ei:
LFB2402:
	.cfi_startproc
	.cfi_personality 0,___gxx_personality_v0
	.cfi_lsda 0,LLSDA2402
	pushl	%ebp
	.cfi_def_cfa_offset 8
	.cfi_offset 5, -8
	movl	%esp, %ebp
	.cfi_def_cfa_register 5
	pushl	%edi
	pushl	%esi
	pushl	%ebx
	subl	$60, %esp
	.cfi_offset 7, -12
	.cfi_offset 6, -16
	.cfi_offset 3, -20
	movl	%ecx, -44(%ebp)
	movl	8(%ebp), %ebx
	cmpl	$53687091, %ebx
	ja	L69
	movl	%ebx, %eax
	sall	$2, %eax
	addl	%ebx, %eax
	sall	$3, %eax
	addl	$4, %eax
	jmp	L70
L69:
	movl	$-1, %eax
L70:
	movl	%eax, (%esp)
LEHB4:
	call	__Znaj
LEHE4:
	movl	%eax, %edi
	movl	%ebx, (%edi)
	leal	4(%edi), %esi
	leal	-1(%ebx), %eax
	movl	%eax, -48(%ebp)
	movl	%esi, -52(%ebp)
L72:
	cmpl	$0, -48(%ebp)
	js	L71
	movl	-52(%ebp), %ecx
LEHB5:
	call	__ZN8hashNodeC1Ev
LEHE5:
	addl	$40, -52(%ebp)
	subl	$1, -48(%ebp)
	jmp	L72
L71:
	leal	4(%edi), %edx
	movl	-44(%ebp), %eax
	movl	%edx, (%eax)
	movl	$0, -28(%ebp)
L74:
	movl	-28(%ebp), %eax
	cmpl	8(%ebp), %eax
	jge	L73
	movl	-44(%ebp), %eax
	movl	(%eax), %ecx
	movl	-28(%ebp), %edx
	movl	%edx, %eax
	sall	$2, %eax
	addl	%edx, %eax
	sall	$3, %eax
	addl	%ecx, %eax
	movl	$0, (%eax)
	movl	-44(%ebp), %eax
	movl	(%eax), %ecx
	movl	-28(%ebp), %edx
	movl	%edx, %eax
	sall	$2, %eax
	addl	%edx, %eax
	sall	$3, %eax
	addl	%ecx, %eax
	addl	$4, %eax
	movl	$LC1, (%esp)
	movl	%eax, %ecx
LEHB6:
	call	__ZNSt7__cxx1112basic_stringIcSt11char_traitsIcESaIcEEaSEPKc
	subl	$4, %esp
	addl	$1, -28(%ebp)
	jmp	L74
L73:
	movl	-44(%ebp), %eax
	movl	8(%ebp), %edx
	movl	%edx, 4(%eax)
	jmp	L81
L80:
	movl	%eax, -52(%ebp)
	testl	%esi, %esi
	je	L76
	movl	-48(%ebp), %eax
	movl	%ebx, %edx
	subl	%eax, %edx
	movl	%edx, %eax
	sall	$2, %eax
	addl	%edx, %eax
	sall	$3, %eax
	subl	$40, %eax
	addl	%esi, %eax
	movl	%eax, -48(%ebp)
L77:
	cmpl	%esi, -48(%ebp)
	je	L76
	subl	$40, -48(%ebp)
	movl	-48(%ebp), %eax
	movl	%eax, -48(%ebp)
	movl	%eax, %ecx
	call	__ZN8hashNodeD1Ev
	jmp	L77
L76:
	movl	-52(%ebp), %esi
	cmpl	$53687091, %ebx
	ja	L78
	movl	%ebx, %eax
	sall	$2, %eax
	addl	%ebx, %eax
	sall	$3, %eax
	addl	$4, %eax
	jmp	L79
L78:
	movl	$-1, %eax
L79:
	movl	%eax, 4(%esp)
	movl	%edi, (%esp)
	call	__ZdaPvj
	movl	%esi, %eax
	movl	%eax, (%esp)
	call	__Unwind_Resume
LEHE6:
L81:
	leal	-12(%ebp), %esp
	popl	%ebx
	.cfi_restore 3
	popl	%esi
	.cfi_restore 6
	popl	%edi
	.cfi_restore 7
	popl	%ebp
	.cfi_restore 5
	.cfi_def_cfa 4, 4
	ret	$4
	.cfi_endproc
LFE2402:
	.section	.gcc_except_table,"w"
LLSDA2402:
	.byte	0xff
	.byte	0xff
	.byte	0x1
	.uleb128 LLSDACSE2402-LLSDACSB2402
LLSDACSB2402:
	.uleb128 LEHB4-LFB2402
	.uleb128 LEHE4-LEHB4
	.uleb128 0
	.uleb128 0
	.uleb128 LEHB5-LFB2402
	.uleb128 LEHE5-LEHB5
	.uleb128 L80-LFB2402
	.uleb128 0
	.uleb128 LEHB6-LFB2402
	.uleb128 LEHE6-LEHB6
	.uleb128 0
	.uleb128 0
LLSDACSE2402:
	.text
	.globl	__ZN7hashLibC1Ei
	.def	__ZN7hashLibC1Ei;	.scl	2;	.type	32;	.endef
	.set	__ZN7hashLibC1Ei,__ZN7hashLibC2Ei
	.align 2
	.globl	__ZN7hashLibD2Ev
	.def	__ZN7hashLibD2Ev;	.scl	2;	.type	32;	.endef
__ZN7hashLibD2Ev:
LFB2405:
	.cfi_startproc
	pushl	%ebp
	.cfi_def_cfa_offset 8
	.cfi_offset 5, -8
	movl	%esp, %ebp
	.cfi_def_cfa_register 5
	pushl	%ebx
	subl	$36, %esp
	.cfi_offset 3, -12
	movl	%ecx, -12(%ebp)
	movl	-12(%ebp), %eax
	movl	(%eax), %eax
	testl	%eax, %eax
	je	L83
	movl	-12(%ebp), %eax
	movl	(%eax), %ecx
	movl	-12(%ebp), %eax
	movl	(%eax), %eax
	subl	$4, %eax
	movl	(%eax), %edx
	movl	%edx, %eax
	sall	$2, %eax
	addl	%edx, %eax
	sall	$3, %eax
	leal	(%ecx,%eax), %ebx
L85:
	movl	-12(%ebp), %eax
	movl	(%eax), %eax
	cmpl	%ebx, %eax
	je	L84
	subl	$40, %ebx
	movl	%ebx, %ecx
	call	__ZN8hashNodeD1Ev
	jmp	L85
L84:
	movl	-12(%ebp), %eax
	movl	(%eax), %eax
	subl	$4, %eax
	movl	(%eax), %edx
	movl	%edx, %eax
	sall	$2, %eax
	addl	%edx, %eax
	sall	$3, %eax
	leal	4(%eax), %edx
	movl	-12(%ebp), %eax
	movl	(%eax), %eax
	subl	$4, %eax
	movl	%edx, 4(%esp)
	movl	%eax, (%esp)
	call	__ZdaPvj
L83:
	movl	-12(%ebp), %eax
	movl	$0, 4(%eax)
	nop
	addl	$36, %esp
	popl	%ebx
	.cfi_restore 3
	popl	%ebp
	.cfi_restore 5
	.cfi_def_cfa 4, 4
	ret
	.cfi_endproc
LFE2405:
	.globl	__ZN7hashLibD1Ev
	.def	__ZN7hashLibD1Ev;	.scl	2;	.type	32;	.endef
	.set	__ZN7hashLibD1Ev,__ZN7hashLibD2Ev
	.align 2
	.globl	__ZN7hashLib7addWordENSt7__cxx1112basic_stringIcSt11char_traitsIcESaIcEEE
	.def	__ZN7hashLib7addWordENSt7__cxx1112basic_stringIcSt11char_traitsIcESaIcEEE;	.scl	2;	.type	32;	.endef
__ZN7hashLib7addWordENSt7__cxx1112basic_stringIcSt11char_traitsIcESaIcEEE:
LFB2407:
	.cfi_startproc
	.cfi_personality 0,___gxx_personality_v0
	.cfi_lsda 0,LLSDA2407
	pushl	%ebp
	.cfi_def_cfa_offset 8
	.cfi_offset 5, -8
	movl	%esp, %ebp
	.cfi_def_cfa_register 5
	pushl	%esi
	pushl	%ebx
	subl	$96, %esp
	.cfi_offset 6, -12
	.cfi_offset 3, -16
	movl	%ecx, -76(%ebp)
	leal	-72(%ebp), %eax
	movl	8(%ebp), %edx
	movl	%edx, (%esp)
	movl	%eax, %ecx
LEHB7:
	call	__ZNSt7__cxx1112basic_stringIcSt11char_traitsIcESaIcEEC1ERKS4_
LEHE7:
	subl	$4, %esp
	movl	-76(%ebp), %eax
	leal	-72(%ebp), %edx
	movl	%edx, (%esp)
	movl	%eax, %ecx
LEHB8:
	call	__ZN7hashLib11getHashNodeENSt7__cxx1112basic_stringIcSt11char_traitsIcESaIcEEE
LEHE8:
	subl	$4, %esp
	testl	%eax, %eax
	setne	%bl
	leal	-72(%ebp), %eax
	movl	%eax, %ecx
	call	__ZNSt7__cxx1112basic_stringIcSt11char_traitsIcESaIcEED1Ev
	testb	%bl, %bl
	jne	L100
	movl	$0, -12(%ebp)
L90:
	movl	8(%ebp), %ecx
	call	__ZNKSt7__cxx1112basic_stringIcSt11char_traitsIcESaIcEE6lengthEv
	movl	%eax, %edx
	movl	-12(%ebp), %eax
	cmpl	%eax, %edx
	seta	%al
	testb	%al, %al
	je	L89
	movl	-12(%ebp), %eax
	movl	%eax, (%esp)
	movl	8(%ebp), %ecx
LEHB9:
	call	__ZNSt7__cxx1112basic_stringIcSt11char_traitsIcESaIcEEixEj
	subl	$4, %esp
	movl	%eax, %ebx
	movl	-12(%ebp), %eax
	movl	%eax, (%esp)
	movl	8(%ebp), %ecx
	call	__ZNSt7__cxx1112basic_stringIcSt11char_traitsIcESaIcEEixEj
	subl	$4, %esp
	movzbl	(%eax), %eax
	movsbl	%al, %eax
	movl	%eax, (%esp)
	call	_tolower
	movb	%al, (%ebx)
	addl	$1, -12(%ebp)
	jmp	L90
L89:
	leal	-48(%ebp), %eax
	movl	8(%ebp), %edx
	movl	%edx, (%esp)
	movl	%eax, %ecx
	call	__ZNSt7__cxx1112basic_stringIcSt11char_traitsIcESaIcEEC1ERKS4_
LEHE9:
	subl	$4, %esp
	movl	-76(%ebp), %eax
	leal	-48(%ebp), %edx
	movl	%edx, (%esp)
	movl	%eax, %ecx
LEHB10:
	call	__ZN7hashLib4hashENSt7__cxx1112basic_stringIcSt11char_traitsIcESaIcEEE
LEHE10:
	subl	$4, %esp
	movl	%eax, -24(%ebp)
	leal	-48(%ebp), %eax
	movl	%eax, %ecx
	call	__ZNSt7__cxx1112basic_stringIcSt11char_traitsIcESaIcEED1Ev
	movl	-76(%ebp), %eax
	movl	(%eax), %ecx
	movl	-24(%ebp), %edx
	movl	%edx, %eax
	sall	$2, %eax
	addl	%edx, %eax
	sall	$3, %eax
	addl	%ecx, %eax
	addl	$4, %eax
	movl	$LC1, 4(%esp)
	movl	%eax, (%esp)
LEHB11:
	call	__ZStneIcSt11char_traitsIcESaIcEEbRKNSt7__cxx1112basic_stringIT_T0_T1_EEPKS5_
	testb	%al, %al
	je	L91
	movl	-76(%ebp), %eax
	movl	(%eax), %ecx
	movl	-24(%ebp), %edx
	movl	%edx, %eax
	sall	$2, %eax
	addl	%edx, %eax
	sall	$3, %eax
	addl	%ecx, %eax
	movl	(%eax), %eax
	movl	%eax, -16(%ebp)
	movl	-76(%ebp), %eax
	movl	(%eax), %ecx
	movl	-24(%ebp), %edx
	movl	%edx, %eax
	sall	$2, %eax
	addl	%edx, %eax
	sall	$3, %eax
	addl	%ecx, %eax
	movl	%eax, -20(%ebp)
L93:
	cmpl	$0, -16(%ebp)
	je	L92
	movl	-16(%ebp), %eax
	movl	%eax, -20(%ebp)
	movl	-16(%ebp), %eax
	movl	(%eax), %eax
	movl	%eax, -16(%ebp)
	jmp	L93
L92:
	movl	$40, (%esp)
	call	__Znwj
LEHE11:
	movl	%eax, %ebx
	movl	%ebx, %ecx
LEHB12:
	call	__ZN8hashNodeC1Ev
LEHE12:
	movl	%ebx, -16(%ebp)
	movl	-16(%ebp), %eax
	leal	4(%eax), %edx
	movl	8(%ebp), %eax
	movl	%eax, (%esp)
	movl	%edx, %ecx
LEHB13:
	call	__ZNSt7__cxx1112basic_stringIcSt11char_traitsIcESaIcEEaSERKS4_
	subl	$4, %esp
	movl	-16(%ebp), %eax
	movl	$0, (%eax)
	movl	-20(%ebp), %eax
	movl	-16(%ebp), %edx
	movl	%edx, (%eax)
	jmp	L86
L91:
	movl	-76(%ebp), %eax
	movl	(%eax), %ecx
	movl	-24(%ebp), %edx
	movl	%edx, %eax
	sall	$2, %eax
	addl	%edx, %eax
	sall	$3, %eax
	addl	%ecx, %eax
	leal	4(%eax), %edx
	movl	8(%ebp), %eax
	movl	%eax, (%esp)
	movl	%edx, %ecx
	call	__ZNSt7__cxx1112basic_stringIcSt11char_traitsIcESaIcEEaSERKS4_
	subl	$4, %esp
	nop
	jmp	L86
L97:
	movl	%eax, %ebx
	leal	-72(%ebp), %eax
	movl	%eax, %ecx
	call	__ZNSt7__cxx1112basic_stringIcSt11char_traitsIcESaIcEED1Ev
	movl	%ebx, %eax
	movl	%eax, (%esp)
	call	__Unwind_Resume
L98:
	movl	%eax, %ebx
	leal	-48(%ebp), %eax
	movl	%eax, %ecx
	call	__ZNSt7__cxx1112basic_stringIcSt11char_traitsIcESaIcEED1Ev
	movl	%ebx, %eax
	movl	%eax, (%esp)
	call	__Unwind_Resume
L99:
	movl	%eax, %esi
	movl	$40, 4(%esp)
	movl	%ebx, (%esp)
	call	__ZdlPvj
	movl	%esi, %eax
	movl	%eax, (%esp)
	call	__Unwind_Resume
LEHE13:
L100:
	nop
L86:
	leal	-8(%ebp), %esp
	popl	%ebx
	.cfi_restore 3
	popl	%esi
	.cfi_restore 6
	popl	%ebp
	.cfi_restore 5
	.cfi_def_cfa 4, 4
	ret	$4
	.cfi_endproc
LFE2407:
	.section	.gcc_except_table,"w"
LLSDA2407:
	.byte	0xff
	.byte	0xff
	.byte	0x1
	.uleb128 LLSDACSE2407-LLSDACSB2407
LLSDACSB2407:
	.uleb128 LEHB7-LFB2407
	.uleb128 LEHE7-LEHB7
	.uleb128 0
	.uleb128 0
	.uleb128 LEHB8-LFB2407
	.uleb128 LEHE8-LEHB8
	.uleb128 L97-LFB2407
	.uleb128 0
	.uleb128 LEHB9-LFB2407
	.uleb128 LEHE9-LEHB9
	.uleb128 0
	.uleb128 0
	.uleb128 LEHB10-LFB2407
	.uleb128 LEHE10-LEHB10
	.uleb128 L98-LFB2407
	.uleb128 0
	.uleb128 LEHB11-LFB2407
	.uleb128 LEHE11-LEHB11
	.uleb128 0
	.uleb128 0
	.uleb128 LEHB12-LFB2407
	.uleb128 LEHE12-LEHB12
	.uleb128 L99-LFB2407
	.uleb128 0
	.uleb128 LEHB13-LFB2407
	.uleb128 LEHE13-LEHB13
	.uleb128 0
	.uleb128 0
LLSDACSE2407:
	.text
	.align 2
	.globl	__ZN7hashLib11getHashNodeENSt7__cxx1112basic_stringIcSt11char_traitsIcESaIcEEE
	.def	__ZN7hashLib11getHashNodeENSt7__cxx1112basic_stringIcSt11char_traitsIcESaIcEEE;	.scl	2;	.type	32;	.endef
__ZN7hashLib11getHashNodeENSt7__cxx1112basic_stringIcSt11char_traitsIcESaIcEEE:
LFB2408:
	.cfi_startproc
	.cfi_personality 0,___gxx_personality_v0
	.cfi_lsda 0,LLSDA2408
	pushl	%ebp
	.cfi_def_cfa_offset 8
	.cfi_offset 5, -8
	movl	%esp, %ebp
	.cfi_def_cfa_register 5
	pushl	%ebx
	subl	$180, %esp
	.cfi_offset 3, -12
	movl	%ecx, -156(%ebp)
	leal	-116(%ebp), %eax
	movl	%eax, %ecx
	call	__ZNSt7__cxx1112basic_stringIcSt11char_traitsIcESaIcEEC1Ev
	leal	-140(%ebp), %eax
	movl	%eax, %ecx
	call	__ZNSt7__cxx1112basic_stringIcSt11char_traitsIcESaIcEEC1Ev
	movl	8(%ebp), %ecx
	call	__ZNKSt7__cxx1112basic_stringIcSt11char_traitsIcESaIcEE6lengthEv
	subl	$1, %eax
	movl	%eax, (%esp)
	movl	8(%ebp), %ecx
LEHB14:
	call	__ZNSt7__cxx1112basic_stringIcSt11char_traitsIcESaIcEEixEj
	subl	$4, %esp
	movzbl	(%eax), %eax
	cmpb	$46, %al
	je	L102
	movl	8(%ebp), %ecx
	call	__ZNKSt7__cxx1112basic_stringIcSt11char_traitsIcESaIcEE6lengthEv
	subl	$1, %eax
	movl	%eax, (%esp)
	movl	8(%ebp), %ecx
	call	__ZNSt7__cxx1112basic_stringIcSt11char_traitsIcESaIcEEixEj
	subl	$4, %esp
	movzbl	(%eax), %eax
	cmpb	$44, %al
	je	L102
	movl	8(%ebp), %ecx
	call	__ZNKSt7__cxx1112basic_stringIcSt11char_traitsIcESaIcEE6lengthEv
	subl	$1, %eax
	movl	%eax, (%esp)
	movl	8(%ebp), %ecx
	call	__ZNSt7__cxx1112basic_stringIcSt11char_traitsIcESaIcEEixEj
	subl	$4, %esp
	movzbl	(%eax), %eax
	cmpb	$63, %al
	je	L102
	movl	8(%ebp), %ecx
	call	__ZNKSt7__cxx1112basic_stringIcSt11char_traitsIcESaIcEE6lengthEv
	subl	$1, %eax
	movl	%eax, (%esp)
	movl	8(%ebp), %ecx
	call	__ZNSt7__cxx1112basic_stringIcSt11char_traitsIcESaIcEEixEj
	subl	$4, %esp
	movzbl	(%eax), %eax
	cmpb	$33, %al
	jne	L103
L102:
	movl	$1, %eax
	jmp	L104
L103:
	movl	$0, %eax
L104:
	testb	%al, %al
	je	L105
	movl	8(%ebp), %ecx
	call	__ZNKSt7__cxx1112basic_stringIcSt11char_traitsIcESaIcEE6lengthEv
	leal	-1(%eax), %edx
	leal	-92(%ebp), %eax
	movl	%edx, 8(%esp)
	movl	$0, 4(%esp)
	movl	8(%ebp), %edx
	movl	%edx, (%esp)
	movl	%eax, %ecx
	call	__ZNKSt7__cxx1112basic_stringIcSt11char_traitsIcESaIcEE6substrEjj
	subl	$12, %esp
	leal	-140(%ebp), %eax
	leal	-92(%ebp), %edx
	movl	%edx, (%esp)
	movl	%eax, %ecx
	call	__ZNSt7__cxx1112basic_stringIcSt11char_traitsIcESaIcEEaSEOS4_
	subl	$4, %esp
	leal	-92(%ebp), %eax
	movl	%eax, %ecx
	call	__ZNSt7__cxx1112basic_stringIcSt11char_traitsIcESaIcEED1Ev
	jmp	L106
L105:
	leal	-140(%ebp), %eax
	movl	8(%ebp), %edx
	movl	%edx, (%esp)
	movl	%eax, %ecx
	call	__ZNSt7__cxx1112basic_stringIcSt11char_traitsIcESaIcEEaSERKS4_
	subl	$4, %esp
L106:
	leal	-140(%ebp), %eax
	movl	$0, (%esp)
	movl	%eax, %ecx
	call	__ZNSt7__cxx1112basic_stringIcSt11char_traitsIcESaIcEEixEj
	subl	$4, %esp
	movzbl	(%eax), %eax
	cmpb	$32, %al
	je	L107
	leal	-140(%ebp), %eax
	movl	$0, (%esp)
	movl	%eax, %ecx
	call	__ZNSt7__cxx1112basic_stringIcSt11char_traitsIcESaIcEEixEj
	subl	$4, %esp
	movzbl	(%eax), %eax
	cmpb	$44, %al
	je	L107
	leal	-140(%ebp), %eax
	movl	$0, (%esp)
	movl	%eax, %ecx
	call	__ZNSt7__cxx1112basic_stringIcSt11char_traitsIcESaIcEEixEj
	subl	$4, %esp
	movzbl	(%eax), %eax
	cmpb	$46, %al
	je	L107
	leal	-140(%ebp), %eax
	movl	$0, (%esp)
	movl	%eax, %ecx
	call	__ZNSt7__cxx1112basic_stringIcSt11char_traitsIcESaIcEEixEj
	subl	$4, %esp
	movzbl	(%eax), %eax
	cmpb	$63, %al
	je	L107
	leal	-140(%ebp), %eax
	movl	$0, (%esp)
	movl	%eax, %ecx
	call	__ZNSt7__cxx1112basic_stringIcSt11char_traitsIcESaIcEEixEj
	subl	$4, %esp
	movzbl	(%eax), %eax
	cmpb	$33, %al
	jne	L108
L107:
	movl	$1, %eax
	jmp	L109
L108:
	movl	$0, %eax
L109:
	testb	%al, %al
	je	L110
	leal	-140(%ebp), %eax
	movl	%eax, %ecx
	call	__ZNKSt7__cxx1112basic_stringIcSt11char_traitsIcESaIcEE6lengthEv
	movl	%eax, %edx
	leal	-68(%ebp), %eax
	movl	%edx, 8(%esp)
	movl	$1, 4(%esp)
	leal	-140(%ebp), %edx
	movl	%edx, (%esp)
	movl	%eax, %ecx
	call	__ZNKSt7__cxx1112basic_stringIcSt11char_traitsIcESaIcEE6substrEjj
	subl	$12, %esp
	leal	-116(%ebp), %eax
	leal	-68(%ebp), %edx
	movl	%edx, (%esp)
	movl	%eax, %ecx
	call	__ZNSt7__cxx1112basic_stringIcSt11char_traitsIcESaIcEEaSEOS4_
	subl	$4, %esp
	leal	-68(%ebp), %eax
	movl	%eax, %ecx
	call	__ZNSt7__cxx1112basic_stringIcSt11char_traitsIcESaIcEED1Ev
	jmp	L111
L110:
	leal	-116(%ebp), %eax
	leal	-140(%ebp), %edx
	movl	%edx, (%esp)
	movl	%eax, %ecx
	call	__ZNSt7__cxx1112basic_stringIcSt11char_traitsIcESaIcEEaSERKS4_
	subl	$4, %esp
L111:
	movl	$0, -12(%ebp)
L113:
	leal	-116(%ebp), %eax
	movl	%eax, %ecx
	call	__ZNKSt7__cxx1112basic_stringIcSt11char_traitsIcESaIcEE6lengthEv
	movl	%eax, %edx
	movl	-12(%ebp), %eax
	cmpl	%eax, %edx
	seta	%al
	testb	%al, %al
	je	L112
	movl	-12(%ebp), %edx
	leal	-116(%ebp), %eax
	movl	%edx, (%esp)
	movl	%eax, %ecx
	call	__ZNSt7__cxx1112basic_stringIcSt11char_traitsIcESaIcEEixEj
	subl	$4, %esp
	movl	%eax, %ebx
	movl	-12(%ebp), %edx
	leal	-116(%ebp), %eax
	movl	%edx, (%esp)
	movl	%eax, %ecx
	call	__ZNSt7__cxx1112basic_stringIcSt11char_traitsIcESaIcEEixEj
	subl	$4, %esp
	movzbl	(%eax), %eax
	movsbl	%al, %eax
	movl	%eax, (%esp)
	call	_tolower
	movb	%al, (%ebx)
	addl	$1, -12(%ebp)
	jmp	L113
L112:
	leal	-44(%ebp), %eax
	leal	-116(%ebp), %edx
	movl	%edx, (%esp)
	movl	%eax, %ecx
	call	__ZNSt7__cxx1112basic_stringIcSt11char_traitsIcESaIcEEC1ERKS4_
LEHE14:
	subl	$4, %esp
	movl	-156(%ebp), %eax
	leal	-44(%ebp), %edx
	movl	%edx, (%esp)
	movl	%eax, %ecx
LEHB15:
	call	__ZN7hashLib4hashENSt7__cxx1112basic_stringIcSt11char_traitsIcESaIcEEE
LEHE15:
	subl	$4, %esp
	movl	%eax, -20(%ebp)
	leal	-44(%ebp), %eax
	movl	%eax, %ecx
	call	__ZNSt7__cxx1112basic_stringIcSt11char_traitsIcESaIcEED1Ev
	movl	$0, -16(%ebp)
	movl	-156(%ebp), %eax
	movl	(%eax), %ecx
	movl	-20(%ebp), %edx
	movl	%edx, %eax
	sall	$2, %eax
	addl	%edx, %eax
	sall	$3, %eax
	addl	%ecx, %eax
	leal	4(%eax), %edx
	leal	-116(%ebp), %eax
	movl	%eax, 4(%esp)
	movl	%edx, (%esp)
	call	__ZSteqIcEN9__gnu_cxx11__enable_ifIXsrSt9__is_charIT_E7__valueEbE6__typeERKNSt7__cxx1112basic_stringIS3_St11char_traitsIS3_ESaIS3_EEESE_
	testb	%al, %al
	je	L114
	movl	-156(%ebp), %eax
	movl	(%eax), %ecx
	movl	-20(%ebp), %edx
	movl	%edx, %eax
	sall	$2, %eax
	addl	%edx, %eax
	sall	$3, %eax
	addl	%ecx, %eax
	movl	%eax, -16(%ebp)
	movl	-16(%ebp), %ebx
	jmp	L115
L114:
	movl	-156(%ebp), %eax
	movl	(%eax), %ecx
	movl	-20(%ebp), %edx
	movl	%edx, %eax
	sall	$2, %eax
	addl	%edx, %eax
	sall	$3, %eax
	addl	%ecx, %eax
	movl	(%eax), %eax
	movl	%eax, -16(%ebp)
L119:
	cmpl	$0, -16(%ebp)
	je	L116
	movl	-16(%ebp), %eax
	leal	4(%eax), %edx
	leal	-116(%ebp), %eax
	movl	%eax, 4(%esp)
	movl	%edx, (%esp)
	call	__ZStneIcSt11char_traitsIcESaIcEEbRKNSt7__cxx1112basic_stringIT_T0_T1_EESA_
	testb	%al, %al
	je	L116
	movl	$1, %eax
	jmp	L117
L116:
	movl	$0, %eax
L117:
	testb	%al, %al
	je	L118
	movl	-16(%ebp), %eax
	movl	(%eax), %eax
	movl	%eax, -16(%ebp)
	jmp	L119
L118:
	cmpl	$0, -16(%ebp)
	jne	L120
	movl	$0, %ebx
	jmp	L115
L120:
	movl	-16(%ebp), %ebx
L115:
	leal	-140(%ebp), %eax
	movl	%eax, %ecx
	call	__ZNSt7__cxx1112basic_stringIcSt11char_traitsIcESaIcEED1Ev
	leal	-116(%ebp), %eax
	movl	%eax, %ecx
	call	__ZNSt7__cxx1112basic_stringIcSt11char_traitsIcESaIcEED1Ev
	movl	%ebx, %eax
	jmp	L126
L125:
	movl	%eax, %ebx
	leal	-44(%ebp), %eax
	movl	%eax, %ecx
	call	__ZNSt7__cxx1112basic_stringIcSt11char_traitsIcESaIcEED1Ev
	jmp	L123
L124:
	movl	%eax, %ebx
L123:
	leal	-140(%ebp), %eax
	movl	%eax, %ecx
	call	__ZNSt7__cxx1112basic_stringIcSt11char_traitsIcESaIcEED1Ev
	leal	-116(%ebp), %eax
	movl	%eax, %ecx
	call	__ZNSt7__cxx1112basic_stringIcSt11char_traitsIcESaIcEED1Ev
	movl	%ebx, %eax
	movl	%eax, (%esp)
LEHB16:
	call	__Unwind_Resume
LEHE16:
L126:
	movl	-4(%ebp), %ebx
	leave
	.cfi_restore 5
	.cfi_restore 3
	.cfi_def_cfa 4, 4
	ret	$4
	.cfi_endproc
LFE2408:
	.section	.gcc_except_table,"w"
LLSDA2408:
	.byte	0xff
	.byte	0xff
	.byte	0x1
	.uleb128 LLSDACSE2408-LLSDACSB2408
LLSDACSB2408:
	.uleb128 LEHB14-LFB2408
	.uleb128 LEHE14-LEHB14
	.uleb128 L124-LFB2408
	.uleb128 0
	.uleb128 LEHB15-LFB2408
	.uleb128 LEHE15-LEHB15
	.uleb128 L125-LFB2408
	.uleb128 0
	.uleb128 LEHB16-LFB2408
	.uleb128 LEHE16-LEHB16
	.uleb128 0
	.uleb128 0
LLSDACSE2408:
	.text
	.align 2
	.globl	__ZN7hashLib4hashENSt7__cxx1112basic_stringIcSt11char_traitsIcESaIcEEE
	.def	__ZN7hashLib4hashENSt7__cxx1112basic_stringIcSt11char_traitsIcESaIcEEE;	.scl	2;	.type	32;	.endef
__ZN7hashLib4hashENSt7__cxx1112basic_stringIcSt11char_traitsIcESaIcEEE:
LFB2412:
	.cfi_startproc
	.cfi_personality 0,___gxx_personality_v0
	.cfi_lsda 0,LLSDA2412
	pushl	%ebp
	.cfi_def_cfa_offset 8
	.cfi_offset 5, -8
	movl	%esp, %ebp
	.cfi_def_cfa_register 5
	pushl	%ebx
	subl	$100, %esp
	.cfi_offset 3, -12
	movl	%ecx, -76(%ebp)
	leal	-68(%ebp), %eax
	movl	%eax, %ecx
	call	__ZNSt7__cxx1112basic_stringIcSt11char_traitsIcESaIcEEC1Ev
	movl	$0, (%esp)
	movl	8(%ebp), %ecx
LEHB17:
	call	__ZNSt7__cxx1112basic_stringIcSt11char_traitsIcESaIcEEixEj
	subl	$4, %esp
	movzbl	(%eax), %eax
	cmpb	$32, %al
	sete	%al
	testb	%al, %al
	je	L128
	movl	8(%ebp), %ecx
	call	__ZNKSt7__cxx1112basic_stringIcSt11char_traitsIcESaIcEE6lengthEv
	movl	%eax, %edx
	leal	-44(%ebp), %eax
	movl	%edx, 8(%esp)
	movl	$1, 4(%esp)
	movl	8(%ebp), %edx
	movl	%edx, (%esp)
	movl	%eax, %ecx
	call	__ZNKSt7__cxx1112basic_stringIcSt11char_traitsIcESaIcEE6substrEjj
	subl	$12, %esp
	leal	-68(%ebp), %eax
	leal	-44(%ebp), %edx
	movl	%edx, (%esp)
	movl	%eax, %ecx
	call	__ZNSt7__cxx1112basic_stringIcSt11char_traitsIcESaIcEEaSEOS4_
	subl	$4, %esp
	leal	-44(%ebp), %eax
	movl	%eax, %ecx
	call	__ZNSt7__cxx1112basic_stringIcSt11char_traitsIcESaIcEED1Ev
	jmp	L129
L128:
	leal	-68(%ebp), %eax
	movl	8(%ebp), %edx
	movl	%edx, (%esp)
	movl	%eax, %ecx
	call	__ZNSt7__cxx1112basic_stringIcSt11char_traitsIcESaIcEEaSERKS4_
	subl	$4, %esp
L129:
	movl	$0, -12(%ebp)
L131:
	leal	-68(%ebp), %eax
	movl	%eax, %ecx
	call	__ZNKSt7__cxx1112basic_stringIcSt11char_traitsIcESaIcEE6lengthEv
	movl	%eax, %edx
	movl	-12(%ebp), %eax
	cmpl	%eax, %edx
	seta	%al
	testb	%al, %al
	je	L130
	movl	-12(%ebp), %edx
	leal	-68(%ebp), %eax
	movl	%edx, (%esp)
	movl	%eax, %ecx
	call	__ZNSt7__cxx1112basic_stringIcSt11char_traitsIcESaIcEEixEj
	subl	$4, %esp
	movl	%eax, %ebx
	movl	-12(%ebp), %edx
	leal	-68(%ebp), %eax
	movl	%edx, (%esp)
	movl	%eax, %ecx
	call	__ZNSt7__cxx1112basic_stringIcSt11char_traitsIcESaIcEEixEj
	subl	$4, %esp
	movzbl	(%eax), %eax
	movsbl	%al, %eax
	movl	%eax, (%esp)
	call	_tolower
	movb	%al, (%ebx)
	addl	$1, -12(%ebp)
	jmp	L131
L130:
	movl	$3784, -16(%ebp)
	movl	$0, -20(%ebp)
L133:
	leal	-68(%ebp), %eax
	movl	%eax, %ecx
	call	__ZNKSt7__cxx1112basic_stringIcSt11char_traitsIcESaIcEE6lengthEv
	movl	%eax, %edx
	movl	-20(%ebp), %eax
	cmpl	%eax, %edx
	seta	%al
	testb	%al, %al
	je	L132
	movl	-20(%ebp), %edx
	leal	-68(%ebp), %eax
	movl	%edx, (%esp)
	movl	%eax, %ecx
	call	__ZNSt7__cxx1112basic_stringIcSt11char_traitsIcESaIcEEixEj
LEHE17:
	subl	$4, %esp
	movzbl	(%eax), %eax
	movsbl	%al, %eax
	addl	%eax, -16(%ebp)
	addl	$1, -20(%ebp)
	jmp	L133
L132:
	movl	-76(%ebp), %eax
	movl	4(%eax), %ecx
	movl	-16(%ebp), %eax
	cltd
	idivl	%ecx
	movl	%edx, -16(%ebp)
	movl	-16(%ebp), %ebx
	leal	-68(%ebp), %eax
	movl	%eax, %ecx
	call	__ZNSt7__cxx1112basic_stringIcSt11char_traitsIcESaIcEED1Ev
	movl	%ebx, %eax
	jmp	L137
L136:
	movl	%eax, %ebx
	leal	-68(%ebp), %eax
	movl	%eax, %ecx
	call	__ZNSt7__cxx1112basic_stringIcSt11char_traitsIcESaIcEED1Ev
	movl	%ebx, %eax
	movl	%eax, (%esp)
LEHB18:
	call	__Unwind_Resume
LEHE18:
L137:
	movl	-4(%ebp), %ebx
	leave
	.cfi_restore 5
	.cfi_restore 3
	.cfi_def_cfa 4, 4
	ret	$4
	.cfi_endproc
LFE2412:
	.section	.gcc_except_table,"w"
LLSDA2412:
	.byte	0xff
	.byte	0xff
	.byte	0x1
	.uleb128 LLSDACSE2412-LLSDACSB2412
LLSDACSB2412:
	.uleb128 LEHB17-LFB2412
	.uleb128 LEHE17-LEHB17
	.uleb128 L136-LFB2412
	.uleb128 0
	.uleb128 LEHB18-LFB2412
	.uleb128 LEHE18-LEHB18
	.uleb128 0
	.uleb128 0
LLSDACSE2412:
	.text
	.globl	__Z19checkForSpacedWordsSt6vectorINSt7__cxx1112basic_stringIcSt11char_traitsIcESaIcEEESaIS5_EES5_S5_
	.def	__Z19checkForSpacedWordsSt6vectorINSt7__cxx1112basic_stringIcSt11char_traitsIcESaIcEEESaIS5_EES5_S5_;	.scl	2;	.type	32;	.endef
__Z19checkForSpacedWordsSt6vectorINSt7__cxx1112basic_stringIcSt11char_traitsIcESaIcEEESaIS5_EES5_S5_:
LFB2413:
	.cfi_startproc
	.cfi_personality 0,___gxx_personality_v0
	.cfi_lsda 0,LLSDA2413
	pushl	%ebp
	.cfi_def_cfa_offset 8
	.cfi_offset 5, -8
	movl	%esp, %ebp
	.cfi_def_cfa_register 5
	pushl	%ebx
	subl	$100, %esp
	.cfi_offset 3, -12
	movl	12(%ebp), %eax
	movl	%eax, %ecx
	call	__ZNKSt7__cxx1112basic_stringIcSt11char_traitsIcESaIcEE6lengthEv
	testl	%eax, %eax
	sete	%al
	testb	%al, %al
	je	L139
	movl	$-1, %ebx
	jmp	L146
L139:
	leal	-84(%ebp), %eax
	movl	%eax, %ecx
	call	__ZNSt7__cxx1112basic_stringIcSt11char_traitsIcESaIcEEC1Ev
	movl	16(%ebp), %eax
	movl	%eax, %ecx
	call	__ZNKSt7__cxx1112basic_stringIcSt11char_traitsIcESaIcEE6lengthEv
	movl	%eax, %edx
	leal	-60(%ebp), %eax
	movl	$-1, 8(%esp)
	movl	%edx, 4(%esp)
	movl	12(%ebp), %edx
	movl	%edx, (%esp)
	movl	%eax, %ecx
LEHB19:
	call	__ZNKSt7__cxx1112basic_stringIcSt11char_traitsIcESaIcEE6substrEjj
	subl	$12, %esp
	leal	-84(%ebp), %eax
	leal	-60(%ebp), %edx
	movl	%edx, (%esp)
	movl	%eax, %ecx
	call	__ZNSt7__cxx1112basic_stringIcSt11char_traitsIcESaIcEEaSEOS4_
	subl	$4, %esp
	leal	-60(%ebp), %eax
	movl	%eax, %ecx
	call	__ZNSt7__cxx1112basic_stringIcSt11char_traitsIcESaIcEED1Ev
	leal	-84(%ebp), %eax
	movl	%eax, %ecx
	call	__ZNKSt7__cxx1112basic_stringIcSt11char_traitsIcESaIcEE6lengthEv
	testl	%eax, %eax
	sete	%al
	testb	%al, %al
	je	L141
	movl	$-1, %ebx
	jmp	L142
L141:
	movl	$0, -12(%ebp)
L145:
	movl	8(%ebp), %ecx
	call	__ZNKSt6vectorINSt7__cxx1112basic_stringIcSt11char_traitsIcESaIcEEESaIS5_EE4sizeEv
	movl	%eax, %edx
	movl	-12(%ebp), %eax
	cmpl	%eax, %edx
	seta	%al
	testb	%al, %al
	je	L143
	movl	-12(%ebp), %eax
	movl	%eax, (%esp)
	movl	8(%ebp), %ecx
	call	__ZNSt6vectorINSt7__cxx1112basic_stringIcSt11char_traitsIcESaIcEEESaIS5_EEixEj
	subl	$4, %esp
	movl	%eax, %ebx
	movl	-12(%ebp), %eax
	movl	%eax, (%esp)
	movl	8(%ebp), %ecx
	call	__ZNSt6vectorINSt7__cxx1112basic_stringIcSt11char_traitsIcESaIcEEESaIS5_EEixEj
	subl	$4, %esp
	movl	%eax, %ecx
	call	__ZNKSt7__cxx1112basic_stringIcSt11char_traitsIcESaIcEE6lengthEv
	movl	%eax, %edx
	leal	-36(%ebp), %eax
	movl	%edx, 8(%esp)
	movl	$0, 4(%esp)
	leal	-84(%ebp), %edx
	movl	%edx, (%esp)
	movl	%eax, %ecx
	call	__ZNKSt7__cxx1112basic_stringIcSt11char_traitsIcESaIcEE6substrEjj
LEHE19:
	subl	$12, %esp
	movl	%ebx, 4(%esp)
	leal	-36(%ebp), %eax
	movl	%eax, (%esp)
	call	__ZSteqIcEN9__gnu_cxx11__enable_ifIXsrSt9__is_charIT_E7__valueEbE6__typeERKNSt7__cxx1112basic_stringIS3_St11char_traitsIS3_ESaIS3_EEESE_
	movl	%eax, %ebx
	leal	-36(%ebp), %eax
	movl	%eax, %ecx
	call	__ZNSt7__cxx1112basic_stringIcSt11char_traitsIcESaIcEED1Ev
	testb	%bl, %bl
	je	L144
	movl	-12(%ebp), %ebx
	jmp	L142
L144:
	addl	$1, -12(%ebp)
	jmp	L145
L143:
	movl	$-1, %ebx
L142:
	leal	-84(%ebp), %eax
	movl	%eax, %ecx
	call	__ZNSt7__cxx1112basic_stringIcSt11char_traitsIcESaIcEED1Ev
L146:
	movl	%ebx, %eax
	jmp	L149
L148:
	movl	%eax, %ebx
	leal	-84(%ebp), %eax
	movl	%eax, %ecx
	call	__ZNSt7__cxx1112basic_stringIcSt11char_traitsIcESaIcEED1Ev
	movl	%ebx, %eax
	movl	%eax, (%esp)
LEHB20:
	call	__Unwind_Resume
LEHE20:
L149:
	movl	-4(%ebp), %ebx
	leave
	.cfi_restore 5
	.cfi_restore 3
	.cfi_def_cfa 4, 4
	ret
	.cfi_endproc
LFE2413:
	.section	.gcc_except_table,"w"
LLSDA2413:
	.byte	0xff
	.byte	0xff
	.byte	0x1
	.uleb128 LLSDACSE2413-LLSDACSB2413
LLSDACSB2413:
	.uleb128 LEHB19-LFB2413
	.uleb128 LEHE19-LEHB19
	.uleb128 L148-LFB2413
	.uleb128 0
	.uleb128 LEHB20-LFB2413
	.uleb128 LEHE20-LEHB20
	.uleb128 0
	.uleb128 0
LLSDACSE2413:
	.text
	.section .rdata,"dr"
LC8:
	.ascii "Error, no sentence.\0"
LC9:
	.ascii " \0"
LC10:
	.ascii ".\0"
LC11:
	.ascii ",\0"
LC12:
	.ascii "!\0"
LC13:
	.ascii "?\0"
	.text
	.globl	__Z13directThesaurPNSt7__cxx1118basic_stringstreamIcSt11char_traitsIcESaIcEEEP7hashLibSt6vectorINS_12basic_stringIcS2_S3_EESaISA_EE
	.def	__Z13directThesaurPNSt7__cxx1118basic_stringstreamIcSt11char_traitsIcESaIcEEEP7hashLibSt6vectorINS_12basic_stringIcS2_S3_EESaISA_EE;	.scl	2;	.type	32;	.endef
__Z13directThesaurPNSt7__cxx1118basic_stringstreamIcSt11char_traitsIcESaIcEEEP7hashLibSt6vectorINS_12basic_stringIcS2_S3_EESaISA_EE:
LFB2414:
	.cfi_startproc
	.cfi_personality 0,___gxx_personality_v0
	.cfi_lsda 0,LLSDA2414
	pushl	%ebp
	.cfi_def_cfa_offset 8
	.cfi_offset 5, -8
	movl	%esp, %ebp
	.cfi_def_cfa_register 5
	pushl	%ebx
	subl	$276, %esp
	.cfi_offset 3, -12
	leal	-136(%ebp), %eax
	movl	8(%ebp), %edx
	movl	%edx, (%esp)
	movl	%eax, %ecx
LEHB21:
	call	__ZNKSt7__cxx1118basic_stringstreamIcSt11char_traitsIcESaIcEE3strEv
LEHE21:
	subl	$4, %esp
	movl	$LC1, 4(%esp)
	leal	-136(%ebp), %eax
	movl	%eax, (%esp)
LEHB22:
	call	__ZSteqIcSt11char_traitsIcESaIcEEbRKNSt7__cxx1112basic_stringIT_T0_T1_EEPKS5_
LEHE22:
	movl	%eax, %ebx
	leal	-136(%ebp), %eax
	movl	%eax, %ecx
	call	__ZNSt7__cxx1112basic_stringIcSt11char_traitsIcESaIcEED1Ev
	testb	%bl, %bl
	je	L151
	movl	$LC8, 4(%esp)
	movl	$__ZSt4cout, (%esp)
LEHB23:
	call	__ZStlsISt11char_traitsIcEERSt13basic_ostreamIcT_ES5_PKc
	movl	$__ZSt4endlIcSt11char_traitsIcEERSt13basic_ostreamIT_T0_ES6_, (%esp)
	movl	%eax, %ecx
	call	__ZNSolsEPFRSoS_E
LEHE23:
	subl	$4, %esp
	jmp	L150
L151:
	leal	-160(%ebp), %eax
	movl	%eax, %ecx
	call	__ZNSt7__cxx1112basic_stringIcSt11char_traitsIcESaIcEEC1Ev
	leal	-184(%ebp), %eax
	movl	%eax, %ecx
	call	__ZNSt7__cxx1112basic_stringIcSt11char_traitsIcESaIcEEC1Ev
	movl	$0, -20(%ebp)
	movb	$0, -9(%ebp)
	leal	-208(%ebp), %eax
	movl	%eax, %ecx
	call	__ZNSt7__cxx1112basic_stringIcSt11char_traitsIcESaIcEEC1Ev
	leal	-232(%ebp), %eax
	movl	8(%ebp), %edx
	movl	%edx, (%esp)
	movl	%eax, %ecx
LEHB24:
	call	__ZNKSt7__cxx1118basic_stringstreamIcSt11char_traitsIcESaIcEE3strEv
LEHE24:
	subl	$4, %esp
L174:
	movl	8(%ebp), %eax
	leal	-160(%ebp), %edx
	movl	%edx, 4(%esp)
	movl	%eax, (%esp)
LEHB25:
	call	__ZStrsIcSt11char_traitsIcESaIcEERSt13basic_istreamIT_T0_ES7_RNSt7__cxx1112basic_stringIS4_S5_T1_EE
	movl	(%eax), %edx
	subl	$12, %edx
	movl	(%edx), %edx
	addl	%edx, %eax
	movl	%eax, %ecx
	call	__ZNKSt9basic_iosIcSt11char_traitsIcEEcvbEv
	testb	%al, %al
	je	L153
	leal	-112(%ebp), %eax
	leal	-208(%ebp), %edx
	movl	%edx, (%esp)
	movl	%eax, %ecx
	call	__ZNSt7__cxx1112basic_stringIcSt11char_traitsIcESaIcEEC1ERKS4_
LEHE25:
	subl	$4, %esp
	leal	-88(%ebp), %eax
	leal	-232(%ebp), %edx
	movl	%edx, (%esp)
	movl	%eax, %ecx
LEHB26:
	call	__ZNSt7__cxx1112basic_stringIcSt11char_traitsIcESaIcEEC1ERKS4_
LEHE26:
	subl	$4, %esp
	leal	-64(%ebp), %eax
	movl	16(%ebp), %edx
	movl	%edx, (%esp)
	movl	%eax, %ecx
LEHB27:
	call	__ZNSt6vectorINSt7__cxx1112basic_stringIcSt11char_traitsIcESaIcEEESaIS5_EEC1ERKS7_
LEHE27:
	subl	$4, %esp
	leal	-112(%ebp), %eax
	movl	%eax, 8(%esp)
	leal	-88(%ebp), %eax
	movl	%eax, 4(%esp)
	leal	-64(%ebp), %eax
	movl	%eax, (%esp)
LEHB28:
	call	__Z19checkForSpacedWordsSt6vectorINSt7__cxx1112basic_stringIcSt11char_traitsIcESaIcEEESaIS5_EES5_S5_
LEHE28:
	movl	%eax, -24(%ebp)
	leal	-64(%ebp), %eax
	movl	%eax, %ecx
	call	__ZNSt6vectorINSt7__cxx1112basic_stringIcSt11char_traitsIcESaIcEEESaIS5_EED1Ev
	leal	-88(%ebp), %eax
	movl	%eax, %ecx
	call	__ZNSt7__cxx1112basic_stringIcSt11char_traitsIcESaIcEED1Ev
	leal	-112(%ebp), %eax
	movl	%eax, %ecx
	call	__ZNSt7__cxx1112basic_stringIcSt11char_traitsIcESaIcEED1Ev
	cmpl	$-1, -24(%ebp)
	je	L154
	movl	$0, -16(%ebp)
L157:
	movl	-24(%ebp), %edx
	movl	16(%ebp), %eax
	movl	%edx, (%esp)
	movl	%eax, %ecx
	call	__ZNSt6vectorINSt7__cxx1112basic_stringIcSt11char_traitsIcESaIcEEESaIS5_EEixEj
	subl	$4, %esp
	movl	%eax, %ecx
	call	__ZNKSt7__cxx1112basic_stringIcSt11char_traitsIcESaIcEE6lengthEv
	movl	%eax, %edx
	movl	-16(%ebp), %eax
	cmpl	%eax, %edx
	seta	%al
	testb	%al, %al
	je	L155
	movl	-16(%ebp), %ebx
	movl	-24(%ebp), %edx
	movl	16(%ebp), %eax
	movl	%edx, (%esp)
	movl	%eax, %ecx
	call	__ZNSt6vectorINSt7__cxx1112basic_stringIcSt11char_traitsIcESaIcEEESaIS5_EEixEj
	subl	$4, %esp
	movl	%ebx, (%esp)
	movl	%eax, %ecx
LEHB29:
	call	__ZNSt7__cxx1112basic_stringIcSt11char_traitsIcESaIcEEixEj
	subl	$4, %esp
	movzbl	(%eax), %eax
	cmpb	$32, %al
	sete	%al
	testb	%al, %al
	je	L156
	movl	8(%ebp), %eax
	leal	-160(%ebp), %edx
	movl	%edx, 4(%esp)
	movl	%eax, (%esp)
	call	__ZStrsIcSt11char_traitsIcESaIcEERSt13basic_istreamIT_T0_ES7_RNSt7__cxx1112basic_stringIS4_S5_T1_EE
L156:
	addl	$1, -16(%ebp)
	jmp	L157
L155:
	movl	-24(%ebp), %edx
	movl	16(%ebp), %eax
	movl	%edx, (%esp)
	movl	%eax, %ecx
	call	__ZNSt6vectorINSt7__cxx1112basic_stringIcSt11char_traitsIcESaIcEEESaIS5_EEixEj
	subl	$4, %esp
	movl	%eax, %edx
	leal	-160(%ebp), %eax
	movl	%edx, (%esp)
	movl	%eax, %ecx
	call	__ZNSt7__cxx1112basic_stringIcSt11char_traitsIcESaIcEEaSERKS4_
	subl	$4, %esp
L154:
	leal	-52(%ebp), %eax
	leal	-160(%ebp), %edx
	movl	%edx, (%esp)
	movl	%eax, %ecx
	call	__ZNSt7__cxx1112basic_stringIcSt11char_traitsIcESaIcEEC1ERKS4_
LEHE29:
	subl	$4, %esp
	movl	12(%ebp), %eax
	leal	-52(%ebp), %edx
	movl	%edx, (%esp)
	movl	%eax, %ecx
LEHB30:
	call	__ZN7hashLib11getHashNodeENSt7__cxx1112basic_stringIcSt11char_traitsIcESaIcEEE
LEHE30:
	subl	$4, %esp
	movl	%eax, -20(%ebp)
	leal	-52(%ebp), %eax
	movl	%eax, %ecx
	call	__ZNSt7__cxx1112basic_stringIcSt11char_traitsIcESaIcEED1Ev
	leal	-184(%ebp), %eax
	leal	-160(%ebp), %edx
	movl	%edx, (%esp)
	movl	%eax, %ecx
LEHB31:
	call	__ZNSt7__cxx1112basic_stringIcSt11char_traitsIcESaIcEEaSERKS4_
	subl	$4, %esp
	cmpl	$0, -20(%ebp)
	je	L158
	movb	$0, -9(%ebp)
	leal	-160(%ebp), %eax
	movl	$0, (%esp)
	movl	%eax, %ecx
	call	__ZNSt7__cxx1112basic_stringIcSt11char_traitsIcESaIcEEixEj
	subl	$4, %esp
	movzbl	(%eax), %eax
	cmpb	$32, %al
	je	L159
	leal	-160(%ebp), %eax
	movl	$0, (%esp)
	movl	%eax, %ecx
	call	__ZNSt7__cxx1112basic_stringIcSt11char_traitsIcESaIcEEixEj
	subl	$4, %esp
	movzbl	(%eax), %eax
	cmpb	$46, %al
	je	L159
	leal	-160(%ebp), %eax
	movl	$0, (%esp)
	movl	%eax, %ecx
	call	__ZNSt7__cxx1112basic_stringIcSt11char_traitsIcESaIcEEixEj
	subl	$4, %esp
	movzbl	(%eax), %eax
	cmpb	$44, %al
	je	L159
	leal	-160(%ebp), %eax
	movl	$0, (%esp)
	movl	%eax, %ecx
	call	__ZNSt7__cxx1112basic_stringIcSt11char_traitsIcESaIcEEixEj
	subl	$4, %esp
	movzbl	(%eax), %eax
	cmpb	$63, %al
	je	L159
	leal	-160(%ebp), %eax
	movl	$0, (%esp)
	movl	%eax, %ecx
	call	__ZNSt7__cxx1112basic_stringIcSt11char_traitsIcESaIcEEixEj
LEHE31:
	subl	$4, %esp
	movzbl	(%eax), %eax
	cmpb	$33, %al
	jne	L160
L159:
	movl	$1, %eax
	jmp	L161
L160:
	movl	$0, %eax
L161:
	testb	%al, %al
	je	L162
	leal	-256(%ebp), %eax
	movl	%eax, %ecx
	call	__ZNSt7__cxx1112basic_stringIcSt11char_traitsIcESaIcEEC1Ev
	leal	-160(%ebp), %eax
	movl	$0, (%esp)
	movl	%eax, %ecx
LEHB32:
	call	__ZNSt7__cxx1112basic_stringIcSt11char_traitsIcESaIcEEixEj
	subl	$4, %esp
	movzbl	(%eax), %eax
	movb	%al, -25(%ebp)
	movsbl	-25(%ebp), %edx
	leal	-256(%ebp), %eax
	movl	%edx, (%esp)
	movl	%eax, %ecx
	call	__ZNSt7__cxx1112basic_stringIcSt11char_traitsIcESaIcEEpLEc
	subl	$4, %esp
	movl	-20(%ebp), %eax
	addl	$28, %eax
	movl	$1, (%esp)
	movl	%eax, %ecx
	call	__ZNSt6vectorI8heapNodeSaIS0_EEixEj
	subl	$4, %esp
	movl	%eax, %edx
	leal	-160(%ebp), %eax
	movl	%edx, (%esp)
	movl	%eax, %ecx
	call	__ZNSt7__cxx1112basic_stringIcSt11char_traitsIcESaIcEEaSERKS4_
	subl	$4, %esp
	leal	-256(%ebp), %eax
	leal	-160(%ebp), %edx
	movl	%edx, (%esp)
	movl	%eax, %ecx
	call	__ZNSt7__cxx1112basic_stringIcSt11char_traitsIcESaIcEEpLERKS4_
	subl	$4, %esp
	leal	-160(%ebp), %eax
	leal	-256(%ebp), %edx
	movl	%edx, (%esp)
	movl	%eax, %ecx
	call	__ZNSt7__cxx1112basic_stringIcSt11char_traitsIcESaIcEEaSERKS4_
LEHE32:
	subl	$4, %esp
	movb	$1, -9(%ebp)
	leal	-256(%ebp), %eax
	movl	%eax, %ecx
	call	__ZNSt7__cxx1112basic_stringIcSt11char_traitsIcESaIcEED1Ev
L162:
	leal	-184(%ebp), %eax
	movl	%eax, %ecx
	call	__ZNKSt7__cxx1112basic_stringIcSt11char_traitsIcESaIcEE6lengthEv
	leal	-1(%eax), %edx
	leal	-184(%ebp), %eax
	movl	%edx, (%esp)
	movl	%eax, %ecx
LEHB33:
	call	__ZNSt7__cxx1112basic_stringIcSt11char_traitsIcESaIcEEixEj
	subl	$4, %esp
	movzbl	(%eax), %eax
	cmpb	$32, %al
	sete	%al
	testb	%al, %al
	je	L163
	movzbl	-9(%ebp), %eax
	xorl	$1, %eax
	testb	%al, %al
	je	L164
	movl	-20(%ebp), %eax
	addl	$28, %eax
	movl	$1, (%esp)
	movl	%eax, %ecx
	call	__ZNSt6vectorI8heapNodeSaIS0_EEixEj
	subl	$4, %esp
	movl	%eax, %edx
	leal	-160(%ebp), %eax
	movl	%edx, (%esp)
	movl	%eax, %ecx
	call	__ZNSt7__cxx1112basic_stringIcSt11char_traitsIcESaIcEEaSERKS4_
	subl	$4, %esp
L164:
	leal	-160(%ebp), %eax
	movl	$LC9, (%esp)
	movl	%eax, %ecx
	call	__ZNSt7__cxx1112basic_stringIcSt11char_traitsIcESaIcEEpLEPKc
	subl	$4, %esp
	movb	$1, -9(%ebp)
L163:
	leal	-184(%ebp), %eax
	movl	%eax, %ecx
	call	__ZNKSt7__cxx1112basic_stringIcSt11char_traitsIcESaIcEE6lengthEv
	leal	-1(%eax), %edx
	leal	-184(%ebp), %eax
	movl	%edx, (%esp)
	movl	%eax, %ecx
	call	__ZNSt7__cxx1112basic_stringIcSt11char_traitsIcESaIcEEixEj
	subl	$4, %esp
	movzbl	(%eax), %eax
	cmpb	$46, %al
	sete	%al
	testb	%al, %al
	je	L165
	movzbl	-9(%ebp), %eax
	xorl	$1, %eax
	testb	%al, %al
	je	L166
	movl	-20(%ebp), %eax
	addl	$28, %eax
	movl	$1, (%esp)
	movl	%eax, %ecx
	call	__ZNSt6vectorI8heapNodeSaIS0_EEixEj
	subl	$4, %esp
	movl	%eax, %edx
	leal	-160(%ebp), %eax
	movl	%edx, (%esp)
	movl	%eax, %ecx
	call	__ZNSt7__cxx1112basic_stringIcSt11char_traitsIcESaIcEEaSERKS4_
	subl	$4, %esp
L166:
	leal	-160(%ebp), %eax
	movl	$LC10, (%esp)
	movl	%eax, %ecx
	call	__ZNSt7__cxx1112basic_stringIcSt11char_traitsIcESaIcEEpLEPKc
	subl	$4, %esp
	movb	$1, -9(%ebp)
L165:
	leal	-184(%ebp), %eax
	movl	%eax, %ecx
	call	__ZNKSt7__cxx1112basic_stringIcSt11char_traitsIcESaIcEE6lengthEv
	leal	-1(%eax), %edx
	leal	-184(%ebp), %eax
	movl	%edx, (%esp)
	movl	%eax, %ecx
	call	__ZNSt7__cxx1112basic_stringIcSt11char_traitsIcESaIcEEixEj
	subl	$4, %esp
	movzbl	(%eax), %eax
	cmpb	$44, %al
	sete	%al
	testb	%al, %al
	je	L167
	movzbl	-9(%ebp), %eax
	xorl	$1, %eax
	testb	%al, %al
	je	L168
	movl	-20(%ebp), %eax
	addl	$28, %eax
	movl	$1, (%esp)
	movl	%eax, %ecx
	call	__ZNSt6vectorI8heapNodeSaIS0_EEixEj
	subl	$4, %esp
	movl	%eax, %edx
	leal	-160(%ebp), %eax
	movl	%edx, (%esp)
	movl	%eax, %ecx
	call	__ZNSt7__cxx1112basic_stringIcSt11char_traitsIcESaIcEEaSERKS4_
	subl	$4, %esp
L168:
	leal	-160(%ebp), %eax
	movl	$LC11, (%esp)
	movl	%eax, %ecx
	call	__ZNSt7__cxx1112basic_stringIcSt11char_traitsIcESaIcEEpLEPKc
	subl	$4, %esp
	movb	$1, -9(%ebp)
L167:
	leal	-184(%ebp), %eax
	movl	%eax, %ecx
	call	__ZNKSt7__cxx1112basic_stringIcSt11char_traitsIcESaIcEE6lengthEv
	leal	-1(%eax), %edx
	leal	-184(%ebp), %eax
	movl	%edx, (%esp)
	movl	%eax, %ecx
	call	__ZNSt7__cxx1112basic_stringIcSt11char_traitsIcESaIcEEixEj
	subl	$4, %esp
	movzbl	(%eax), %eax
	cmpb	$33, %al
	sete	%al
	testb	%al, %al
	je	L169
	movzbl	-9(%ebp), %eax
	xorl	$1, %eax
	testb	%al, %al
	je	L170
	movl	-20(%ebp), %eax
	addl	$28, %eax
	movl	$1, (%esp)
	movl	%eax, %ecx
	call	__ZNSt6vectorI8heapNodeSaIS0_EEixEj
	subl	$4, %esp
	movl	%eax, %edx
	leal	-160(%ebp), %eax
	movl	%edx, (%esp)
	movl	%eax, %ecx
	call	__ZNSt7__cxx1112basic_stringIcSt11char_traitsIcESaIcEEaSERKS4_
	subl	$4, %esp
L170:
	leal	-160(%ebp), %eax
	movl	$LC12, (%esp)
	movl	%eax, %ecx
	call	__ZNSt7__cxx1112basic_stringIcSt11char_traitsIcESaIcEEpLEPKc
	subl	$4, %esp
	movb	$1, -9(%ebp)
L169:
	leal	-184(%ebp), %eax
	movl	%eax, %ecx
	call	__ZNKSt7__cxx1112basic_stringIcSt11char_traitsIcESaIcEE6lengthEv
	leal	-1(%eax), %edx
	leal	-184(%ebp), %eax
	movl	%edx, (%esp)
	movl	%eax, %ecx
	call	__ZNSt7__cxx1112basic_stringIcSt11char_traitsIcESaIcEEixEj
	subl	$4, %esp
	movzbl	(%eax), %eax
	cmpb	$63, %al
	sete	%al
	testb	%al, %al
	je	L171
	movzbl	-9(%ebp), %eax
	xorl	$1, %eax
	testb	%al, %al
	je	L172
	movl	-20(%ebp), %eax
	addl	$28, %eax
	movl	$1, (%esp)
	movl	%eax, %ecx
	call	__ZNSt6vectorI8heapNodeSaIS0_EEixEj
	subl	$4, %esp
	movl	%eax, %edx
	leal	-160(%ebp), %eax
	movl	%edx, (%esp)
	movl	%eax, %ecx
	call	__ZNSt7__cxx1112basic_stringIcSt11char_traitsIcESaIcEEaSERKS4_
	subl	$4, %esp
L172:
	leal	-160(%ebp), %eax
	movl	$LC13, (%esp)
	movl	%eax, %ecx
	call	__ZNSt7__cxx1112basic_stringIcSt11char_traitsIcESaIcEEpLEPKc
	subl	$4, %esp
	movb	$1, -9(%ebp)
L171:
	movzbl	-9(%ebp), %eax
	xorl	$1, %eax
	testb	%al, %al
	je	L158
	movl	-20(%ebp), %eax
	addl	$28, %eax
	movl	$1, (%esp)
	movl	%eax, %ecx
	call	__ZNSt6vectorI8heapNodeSaIS0_EEixEj
	subl	$4, %esp
	movl	%eax, %edx
	leal	-160(%ebp), %eax
	movl	%edx, (%esp)
	movl	%eax, %ecx
	call	__ZNSt7__cxx1112basic_stringIcSt11char_traitsIcESaIcEEaSERKS4_
	subl	$4, %esp
L158:
	leal	-160(%ebp), %eax
	movl	%eax, 4(%esp)
	movl	$__ZSt4cout, (%esp)
	call	__ZStlsIcSt11char_traitsIcESaIcEERSt13basic_ostreamIT_T0_ES7_RKNSt7__cxx1112basic_stringIS4_S5_T1_EE
	movl	$LC9, 4(%esp)
	movl	%eax, (%esp)
	call	__ZStlsISt11char_traitsIcEERSt13basic_ostreamIcT_ES5_PKc
	leal	-208(%ebp), %eax
	leal	-160(%ebp), %edx
	movl	%edx, (%esp)
	movl	%eax, %ecx
	call	__ZNSt7__cxx1112basic_stringIcSt11char_traitsIcESaIcEEpLERKS4_
	subl	$4, %esp
	jmp	L174
L153:
	movl	$__ZSt4endlIcSt11char_traitsIcEERSt13basic_ostreamIT_T0_ES6_, (%esp)
	movl	$__ZSt4cout, %ecx
	call	__ZNSolsEPFRSoS_E
	subl	$4, %esp
	movl	$__ZSt4endlIcSt11char_traitsIcEERSt13basic_ostreamIT_T0_ES6_, (%esp)
	movl	$__ZSt4cout, %ecx
	call	__ZNSolsEPFRSoS_E
LEHE33:
	subl	$4, %esp
	nop
	leal	-232(%ebp), %eax
	movl	%eax, %ecx
	call	__ZNSt7__cxx1112basic_stringIcSt11char_traitsIcESaIcEED1Ev
	leal	-208(%ebp), %eax
	movl	%eax, %ecx
	call	__ZNSt7__cxx1112basic_stringIcSt11char_traitsIcESaIcEED1Ev
	leal	-184(%ebp), %eax
	movl	%eax, %ecx
	call	__ZNSt7__cxx1112basic_stringIcSt11char_traitsIcESaIcEED1Ev
	leal	-160(%ebp), %eax
	movl	%eax, %ecx
	call	__ZNSt7__cxx1112basic_stringIcSt11char_traitsIcESaIcEED1Ev
	jmp	L150
L184:
	movl	%eax, %ebx
	leal	-136(%ebp), %eax
	movl	%eax, %ecx
	call	__ZNSt7__cxx1112basic_stringIcSt11char_traitsIcESaIcEED1Ev
	movl	%ebx, %eax
	movl	%eax, (%esp)
LEHB34:
	call	__Unwind_Resume
L189:
	movl	%eax, %ebx
	leal	-64(%ebp), %eax
	movl	%eax, %ecx
	call	__ZNSt6vectorINSt7__cxx1112basic_stringIcSt11char_traitsIcESaIcEEESaIS5_EED1Ev
	jmp	L178
L188:
	movl	%eax, %ebx
L178:
	leal	-88(%ebp), %eax
	movl	%eax, %ecx
	call	__ZNSt7__cxx1112basic_stringIcSt11char_traitsIcESaIcEED1Ev
	jmp	L179
L187:
	movl	%eax, %ebx
L179:
	leal	-112(%ebp), %eax
	movl	%eax, %ecx
	call	__ZNSt7__cxx1112basic_stringIcSt11char_traitsIcESaIcEED1Ev
	jmp	L180
L190:
	movl	%eax, %ebx
	leal	-52(%ebp), %eax
	movl	%eax, %ecx
	call	__ZNSt7__cxx1112basic_stringIcSt11char_traitsIcESaIcEED1Ev
	jmp	L180
L191:
	movl	%eax, %ebx
	leal	-256(%ebp), %eax
	movl	%eax, %ecx
	call	__ZNSt7__cxx1112basic_stringIcSt11char_traitsIcESaIcEED1Ev
	jmp	L180
L186:
	movl	%eax, %ebx
L180:
	leal	-232(%ebp), %eax
	movl	%eax, %ecx
	call	__ZNSt7__cxx1112basic_stringIcSt11char_traitsIcESaIcEED1Ev
	jmp	L183
L185:
	movl	%eax, %ebx
L183:
	leal	-208(%ebp), %eax
	movl	%eax, %ecx
	call	__ZNSt7__cxx1112basic_stringIcSt11char_traitsIcESaIcEED1Ev
	leal	-184(%ebp), %eax
	movl	%eax, %ecx
	call	__ZNSt7__cxx1112basic_stringIcSt11char_traitsIcESaIcEED1Ev
	leal	-160(%ebp), %eax
	movl	%eax, %ecx
	call	__ZNSt7__cxx1112basic_stringIcSt11char_traitsIcESaIcEED1Ev
	movl	%ebx, %eax
	movl	%eax, (%esp)
	call	__Unwind_Resume
LEHE34:
L150:
	movl	-4(%ebp), %ebx
	leave
	.cfi_restore 5
	.cfi_restore 3
	.cfi_def_cfa 4, 4
	ret
	.cfi_endproc
LFE2414:
	.section	.gcc_except_table,"w"
LLSDA2414:
	.byte	0xff
	.byte	0xff
	.byte	0x1
	.uleb128 LLSDACSE2414-LLSDACSB2414
LLSDACSB2414:
	.uleb128 LEHB21-LFB2414
	.uleb128 LEHE21-LEHB21
	.uleb128 0
	.uleb128 0
	.uleb128 LEHB22-LFB2414
	.uleb128 LEHE22-LEHB22
	.uleb128 L184-LFB2414
	.uleb128 0
	.uleb128 LEHB23-LFB2414
	.uleb128 LEHE23-LEHB23
	.uleb128 0
	.uleb128 0
	.uleb128 LEHB24-LFB2414
	.uleb128 LEHE24-LEHB24
	.uleb128 L185-LFB2414
	.uleb128 0
	.uleb128 LEHB25-LFB2414
	.uleb128 LEHE25-LEHB25
	.uleb128 L186-LFB2414
	.uleb128 0
	.uleb128 LEHB26-LFB2414
	.uleb128 LEHE26-LEHB26
	.uleb128 L187-LFB2414
	.uleb128 0
	.uleb128 LEHB27-LFB2414
	.uleb128 LEHE27-LEHB27
	.uleb128 L188-LFB2414
	.uleb128 0
	.uleb128 LEHB28-LFB2414
	.uleb128 LEHE28-LEHB28
	.uleb128 L189-LFB2414
	.uleb128 0
	.uleb128 LEHB29-LFB2414
	.uleb128 LEHE29-LEHB29
	.uleb128 L186-LFB2414
	.uleb128 0
	.uleb128 LEHB30-LFB2414
	.uleb128 LEHE30-LEHB30
	.uleb128 L190-LFB2414
	.uleb128 0
	.uleb128 LEHB31-LFB2414
	.uleb128 LEHE31-LEHB31
	.uleb128 L186-LFB2414
	.uleb128 0
	.uleb128 LEHB32-LFB2414
	.uleb128 LEHE32-LEHB32
	.uleb128 L191-LFB2414
	.uleb128 0
	.uleb128 LEHB33-LFB2414
	.uleb128 LEHE33-LEHB33
	.uleb128 L186-LFB2414
	.uleb128 0
	.uleb128 LEHB34-LFB2414
	.uleb128 LEHE34-LEHB34
	.uleb128 0
	.uleb128 0
LLSDACSE2414:
	.text
	.section	.text$_ZN9LLstorageC1Ev,"x"
	.linkonce discard
	.align 2
	.globl	__ZN9LLstorageC1Ev
	.def	__ZN9LLstorageC1Ev;	.scl	2;	.type	32;	.endef
__ZN9LLstorageC1Ev:
LFB2418:
	.cfi_startproc
	pushl	%ebp
	.cfi_def_cfa_offset 8
	.cfi_offset 5, -8
	movl	%esp, %ebp
	.cfi_def_cfa_register 5
	pushl	%esi
	pushl	%ebx
	subl	$16, %esp
	.cfi_offset 6, -12
	.cfi_offset 3, -16
	movl	%ecx, -12(%ebp)
	movl	-12(%ebp), %eax
	movl	%eax, %ecx
	call	__ZNSt7__cxx1112basic_stringIcSt11char_traitsIcESaIcEEC1Ev
	movl	-12(%ebp), %eax
	addl	$24, %eax
	movl	$2, %ebx
	movl	%eax, %esi
L194:
	testl	%ebx, %ebx
	js	L195
	movl	%esi, %ecx
	call	__ZN8heapNodeC1Ev
	addl	$32, %esi
	subl	$1, %ebx
	jmp	L194
L195:
	nop
	addl	$16, %esp
	popl	%ebx
	.cfi_restore 3
	popl	%esi
	.cfi_restore 6
	popl	%ebp
	.cfi_restore 5
	.cfi_def_cfa 4, 4
	ret
	.cfi_endproc
LFE2418:
	.section	.text$_ZN8heapNodeaSERKS_,"x"
	.linkonce discard
	.align 2
	.globl	__ZN8heapNodeaSERKS_
	.def	__ZN8heapNodeaSERKS_;	.scl	2;	.type	32;	.endef
__ZN8heapNodeaSERKS_:
LFB2419:
	.cfi_startproc
	pushl	%ebp
	.cfi_def_cfa_offset 8
	.cfi_offset 5, -8
	movl	%esp, %ebp
	.cfi_def_cfa_register 5
	subl	$40, %esp
	movl	%ecx, -12(%ebp)
	movl	8(%ebp), %edx
	movl	-12(%ebp), %eax
	movl	%edx, (%esp)
	movl	%eax, %ecx
	call	__ZNSt7__cxx1112basic_stringIcSt11char_traitsIcESaIcEEaSERKS4_
	subl	$4, %esp
	movl	8(%ebp), %eax
	movl	24(%eax), %edx
	movl	-12(%ebp), %eax
	movl	%edx, 24(%eax)
	movl	8(%ebp), %eax
	movl	28(%eax), %edx
	movl	-12(%ebp), %eax
	movl	%edx, 28(%eax)
	movl	-12(%ebp), %eax
	leave
	.cfi_restore 5
	.cfi_def_cfa 4, 4
	ret	$4
	.cfi_endproc
LFE2419:
	.section .rdata,"dr"
LC14:
	.ascii ":\0"
LC15:
	.ascii "   \0"
LC16:
	.ascii "No recognized word\0"
	.align 4
LC17:
	.ascii "Would you like to provide feedback to improve advise?\0"
LC18:
	.ascii "y\0"
LC19:
	.ascii "yes\0"
LC20:
	.ascii "sure\0"
	.align 4
LC21:
	.ascii "Which synonym (1, 2, 3) was best for:\0"
LC22:
	.ascii "(1)\0"
LC23:
	.ascii "     (2)\0"
LC24:
	.ascii "      (3)\0"
LC25:
	.ascii "1\0"
LC26:
	.ascii "2\0"
LC27:
	.ascii "3\0"
LC28:
	.ascii "Thank you.\0"
LC29:
	.ascii "n\0"
LC30:
	.ascii "no\0"
LC31:
	.ascii "nope\0"
	.text
	.globl	__Z13indireThesaurPNSt7__cxx1118basic_stringstreamIcSt11char_traitsIcESaIcEEEP7hashLibP8heapNodePS9_St6vectorINS_12basic_stringIcS2_S3_EESaISD_EEPb
	.def	__Z13indireThesaurPNSt7__cxx1118basic_stringstreamIcSt11char_traitsIcESaIcEEEP7hashLibP8heapNodePS9_St6vectorINS_12basic_stringIcS2_S3_EESaISD_EEPb;	.scl	2;	.type	32;	.endef
__Z13indireThesaurPNSt7__cxx1118basic_stringstreamIcSt11char_traitsIcESaIcEEEP7hashLibP8heapNodePS9_St6vectorINS_12basic_stringIcS2_S3_EESaISD_EEPb:
LFB2415:
	.cfi_startproc
	.cfi_personality 0,___gxx_personality_v0
	.cfi_lsda 0,LLSDA2415
	pushl	%ebp
	.cfi_def_cfa_offset 8
	.cfi_offset 5, -8
	movl	%esp, %ebp
	.cfi_def_cfa_register 5
	pushl	%edi
	pushl	%esi
	pushl	%ebx
	subl	$380, %esp
	.cfi_offset 7, -12
	.cfi_offset 6, -16
	.cfi_offset 3, -20
	leal	-224(%ebp), %eax
	movl	8(%ebp), %edx
	movl	%edx, (%esp)
	movl	%eax, %ecx
LEHB35:
	call	__ZNKSt7__cxx1118basic_stringstreamIcSt11char_traitsIcESaIcEE3strEv
LEHE35:
	subl	$4, %esp
	movl	$LC1, 4(%esp)
	leal	-224(%ebp), %eax
	movl	%eax, (%esp)
LEHB36:
	call	__ZSteqIcSt11char_traitsIcESaIcEEbRKNSt7__cxx1112basic_stringIT_T0_T1_EEPKS5_
LEHE36:
	movl	%eax, %ebx
	leal	-224(%ebp), %eax
	movl	%eax, %ecx
	call	__ZNSt7__cxx1112basic_stringIcSt11char_traitsIcESaIcEED1Ev
	testb	%bl, %bl
	je	L199
	movl	$LC8, 4(%esp)
	movl	$__ZSt4cout, (%esp)
LEHB37:
	call	__ZStlsISt11char_traitsIcEERSt13basic_ostreamIcT_ES5_PKc
	movl	$__ZSt4endlIcSt11char_traitsIcEERSt13basic_ostreamIT_T0_ES6_, (%esp)
	movl	%eax, %ecx
	call	__ZNSolsEPFRSoS_E
LEHE37:
	subl	$4, %esp
	jmp	L198
L199:
	leal	-248(%ebp), %eax
	movl	%eax, %ecx
	call	__ZNSt7__cxx1112basic_stringIcSt11char_traitsIcESaIcEEC1Ev
	movl	$0, -76(%ebp)
	movl	$124, (%esp)
LEHB38:
	call	__Znwj
	movl	%eax, %ebx
	movl	%ebx, %ecx
	call	__ZN9LLstorageC1Ev
	movl	%ebx, -80(%ebp)
	movl	$124, (%esp)
	call	__Znwj
	movl	%eax, %ebx
	movl	%ebx, %ecx
	call	__ZN9LLstorageC1Ev
	movl	%ebx, -28(%ebp)
	movb	$0, -29(%ebp)
	movb	$0, -30(%ebp)
	leal	-272(%ebp), %eax
	movl	8(%ebp), %edx
	movl	%edx, (%esp)
	movl	%eax, %ecx
	call	__ZNKSt7__cxx1118basic_stringstreamIcSt11char_traitsIcESaIcEE3strEv
LEHE38:
	subl	$4, %esp
	leal	-296(%ebp), %eax
	movl	%eax, %ecx
	call	__ZNSt7__cxx1112basic_stringIcSt11char_traitsIcESaIcEEC1Ev
L231:
	movl	8(%ebp), %eax
	leal	-248(%ebp), %edx
	movl	%edx, 4(%esp)
	movl	%eax, (%esp)
LEHB39:
	call	__ZStrsIcSt11char_traitsIcESaIcEERSt13basic_istreamIT_T0_ES7_RNSt7__cxx1112basic_stringIS4_S5_T1_EE
	movl	(%eax), %edx
	subl	$12, %edx
	movl	(%edx), %edx
	addl	%edx, %eax
	movl	%eax, %ecx
	call	__ZNKSt9basic_iosIcSt11char_traitsIcEEcvbEv
	testb	%al, %al
	je	L201
	leal	-200(%ebp), %eax
	leal	-296(%ebp), %edx
	movl	%edx, (%esp)
	movl	%eax, %ecx
	call	__ZNSt7__cxx1112basic_stringIcSt11char_traitsIcESaIcEEC1ERKS4_
LEHE39:
	subl	$4, %esp
	leal	-176(%ebp), %eax
	leal	-272(%ebp), %edx
	movl	%edx, (%esp)
	movl	%eax, %ecx
LEHB40:
	call	__ZNSt7__cxx1112basic_stringIcSt11char_traitsIcESaIcEEC1ERKS4_
LEHE40:
	subl	$4, %esp
	leal	-152(%ebp), %eax
	movl	24(%ebp), %edx
	movl	%edx, (%esp)
	movl	%eax, %ecx
LEHB41:
	call	__ZNSt6vectorINSt7__cxx1112basic_stringIcSt11char_traitsIcESaIcEEESaIS5_EEC1ERKS7_
LEHE41:
	subl	$4, %esp
	leal	-200(%ebp), %eax
	movl	%eax, 8(%esp)
	leal	-176(%ebp), %eax
	movl	%eax, 4(%esp)
	leal	-152(%ebp), %eax
	movl	%eax, (%esp)
LEHB42:
	call	__Z19checkForSpacedWordsSt6vectorINSt7__cxx1112basic_stringIcSt11char_traitsIcESaIcEEESaIS5_EES5_S5_
LEHE42:
	movl	%eax, -84(%ebp)
	leal	-152(%ebp), %eax
	movl	%eax, %ecx
	call	__ZNSt6vectorINSt7__cxx1112basic_stringIcSt11char_traitsIcESaIcEEESaIS5_EED1Ev
	leal	-176(%ebp), %eax
	movl	%eax, %ecx
	call	__ZNSt7__cxx1112basic_stringIcSt11char_traitsIcESaIcEED1Ev
	leal	-200(%ebp), %eax
	movl	%eax, %ecx
	call	__ZNSt7__cxx1112basic_stringIcSt11char_traitsIcESaIcEED1Ev
	cmpl	$-1, -84(%ebp)
	je	L202
	movl	$0, -36(%ebp)
L205:
	movl	-84(%ebp), %edx
	movl	24(%ebp), %eax
	movl	%edx, (%esp)
	movl	%eax, %ecx
	call	__ZNSt6vectorINSt7__cxx1112basic_stringIcSt11char_traitsIcESaIcEEESaIS5_EEixEj
	subl	$4, %esp
	movl	%eax, %ecx
	call	__ZNKSt7__cxx1112basic_stringIcSt11char_traitsIcESaIcEE6lengthEv
	movl	%eax, %edx
	movl	-36(%ebp), %eax
	cmpl	%eax, %edx
	seta	%al
	testb	%al, %al
	je	L203
	movl	-36(%ebp), %ebx
	movl	-84(%ebp), %edx
	movl	24(%ebp), %eax
	movl	%edx, (%esp)
	movl	%eax, %ecx
	call	__ZNSt6vectorINSt7__cxx1112basic_stringIcSt11char_traitsIcESaIcEEESaIS5_EEixEj
	subl	$4, %esp
	movl	%ebx, (%esp)
	movl	%eax, %ecx
LEHB43:
	call	__ZNSt7__cxx1112basic_stringIcSt11char_traitsIcESaIcEEixEj
	subl	$4, %esp
	movzbl	(%eax), %eax
	cmpb	$32, %al
	sete	%al
	testb	%al, %al
	je	L204
	movl	8(%ebp), %eax
	leal	-248(%ebp), %edx
	movl	%edx, 4(%esp)
	movl	%eax, (%esp)
	call	__ZStrsIcSt11char_traitsIcESaIcEERSt13basic_istreamIT_T0_ES7_RNSt7__cxx1112basic_stringIS4_S5_T1_EE
L204:
	addl	$1, -36(%ebp)
	jmp	L205
L203:
	movl	-84(%ebp), %edx
	movl	24(%ebp), %eax
	movl	%edx, (%esp)
	movl	%eax, %ecx
	call	__ZNSt6vectorINSt7__cxx1112basic_stringIcSt11char_traitsIcESaIcEEESaIS5_EEixEj
	subl	$4, %esp
	movl	%eax, %edx
	leal	-248(%ebp), %eax
	movl	%edx, (%esp)
	movl	%eax, %ecx
	call	__ZNSt7__cxx1112basic_stringIcSt11char_traitsIcESaIcEEaSERKS4_
	subl	$4, %esp
L202:
	leal	-140(%ebp), %eax
	leal	-248(%ebp), %edx
	movl	%edx, (%esp)
	movl	%eax, %ecx
	call	__ZNSt7__cxx1112basic_stringIcSt11char_traitsIcESaIcEEC1ERKS4_
LEHE43:
	subl	$4, %esp
	movl	12(%ebp), %eax
	leal	-140(%ebp), %edx
	movl	%edx, (%esp)
	movl	%eax, %ecx
LEHB44:
	call	__ZN7hashLib11getHashNodeENSt7__cxx1112basic_stringIcSt11char_traitsIcESaIcEEE
LEHE44:
	subl	$4, %esp
	movl	%eax, -76(%ebp)
	leal	-140(%ebp), %eax
	movl	%eax, %ecx
	call	__ZNSt7__cxx1112basic_stringIcSt11char_traitsIcESaIcEED1Ev
	cmpl	$0, -76(%ebp)
	je	L206
	movb	$0, -30(%ebp)
	movb	$1, -29(%ebp)
	movl	$0, -40(%ebp)
L208:
	cmpl	$2, -40(%ebp)
	jg	L207
	movl	-40(%ebp), %eax
	addl	$1, %eax
	movl	%eax, %edx
	movl	-76(%ebp), %eax
	addl	$28, %eax
	movl	%edx, (%esp)
	movl	%eax, %ecx
	call	__ZNSt6vectorI8heapNodeSaIS0_EEixEj
	subl	$4, %esp
	movl	%eax, %edx
	movl	-40(%ebp), %eax
	sall	$5, %eax
	movl	%eax, %ecx
	movl	16(%ebp), %eax
	addl	%ecx, %eax
	movl	%edx, (%esp)
	movl	%eax, %ecx
LEHB45:
	call	__ZN8heapNodeaSERKS_
	subl	$4, %esp
	movl	-40(%ebp), %eax
	leal	0(,%eax,4), %edx
	movl	20(%ebp), %eax
	leal	(%edx,%eax), %ebx
	movl	-40(%ebp), %eax
	addl	$1, %eax
	movl	%eax, %edx
	movl	-76(%ebp), %eax
	addl	$28, %eax
	movl	%edx, (%esp)
	movl	%eax, %ecx
	call	__ZNSt6vectorI8heapNodeSaIS0_EEixEj
	subl	$4, %esp
	movl	%eax, (%ebx)
	addl	$1, -40(%ebp)
	jmp	L208
L207:
	movl	16(%ebp), %eax
	addl	$64, %eax
	movl	24(%eax), %ebx
	movl	-76(%ebp), %eax
	addl	$28, %eax
	movl	$4, (%esp)
	movl	%eax, %ecx
	call	__ZNSt6vectorI8heapNodeSaIS0_EEixEj
	subl	$4, %esp
	movl	24(%eax), %eax
	cmpl	%eax, %ebx
	jl	L209
	movl	16(%ebp), %eax
	addl	$64, %eax
	movl	24(%eax), %ebx
	movl	-76(%ebp), %eax
	addl	$28, %eax
	movl	$5, (%esp)
	movl	%eax, %ecx
	call	__ZNSt6vectorI8heapNodeSaIS0_EEixEj
	subl	$4, %esp
	movl	24(%eax), %eax
	cmpl	%eax, %ebx
	jge	L210
L209:
	movl	$1, %eax
	jmp	L211
L210:
	movl	$0, %eax
L211:
	testb	%al, %al
	je	L212
	movl	-76(%ebp), %eax
	addl	$28, %eax
	movl	$4, (%esp)
	movl	%eax, %ecx
	call	__ZNSt6vectorI8heapNodeSaIS0_EEixEj
	subl	$4, %esp
	movl	24(%eax), %ebx
	movl	-76(%ebp), %eax
	addl	$28, %eax
	movl	$5, (%esp)
	movl	%eax, %ecx
	call	__ZNSt6vectorI8heapNodeSaIS0_EEixEj
	subl	$4, %esp
	movl	24(%eax), %eax
	cmpl	%eax, %ebx
	setge	%al
	testb	%al, %al
	je	L213
	movl	-76(%ebp), %eax
	addl	$28, %eax
	movl	$4, (%esp)
	movl	%eax, %ecx
	call	__ZNSt6vectorI8heapNodeSaIS0_EEixEj
	subl	$4, %esp
	movl	%eax, %edx
	movl	16(%ebp), %eax
	addl	$64, %eax
	movl	%edx, (%esp)
	movl	%eax, %ecx
	call	__ZN8heapNodeaSERKS_
	subl	$4, %esp
	movl	20(%ebp), %eax
	leal	8(%eax), %ebx
	movl	-76(%ebp), %eax
	addl	$28, %eax
	movl	$4, (%esp)
	movl	%eax, %ecx
	call	__ZNSt6vectorI8heapNodeSaIS0_EEixEj
	subl	$4, %esp
	movl	%eax, (%ebx)
	jmp	L212
L213:
	movl	-76(%ebp), %eax
	addl	$28, %eax
	movl	$5, (%esp)
	movl	%eax, %ecx
	call	__ZNSt6vectorI8heapNodeSaIS0_EEixEj
	subl	$4, %esp
	movl	%eax, %edx
	movl	16(%ebp), %eax
	addl	$64, %eax
	movl	%edx, (%esp)
	movl	%eax, %ecx
	call	__ZN8heapNodeaSERKS_
	subl	$4, %esp
	movl	20(%ebp), %eax
	leal	8(%eax), %ebx
	movl	-76(%ebp), %eax
	addl	$28, %eax
	movl	$5, (%esp)
	movl	%eax, %ecx
	call	__ZNSt6vectorI8heapNodeSaIS0_EEixEj
	subl	$4, %esp
	movl	%eax, (%ebx)
L212:
	movl	16(%ebp), %eax
	addl	$32, %eax
	movl	24(%eax), %ebx
	movl	-76(%ebp), %eax
	addl	$28, %eax
	movl	$6, (%esp)
	movl	%eax, %ecx
	call	__ZNSt6vectorI8heapNodeSaIS0_EEixEj
	subl	$4, %esp
	movl	24(%eax), %eax
	cmpl	%eax, %ebx
	jl	L215
	movl	16(%ebp), %eax
	addl	$32, %eax
	movl	24(%eax), %ebx
	movl	-76(%ebp), %eax
	addl	$28, %eax
	movl	$7, (%esp)
	movl	%eax, %ecx
	call	__ZNSt6vectorI8heapNodeSaIS0_EEixEj
	subl	$4, %esp
	movl	24(%eax), %eax
	cmpl	%eax, %ebx
	jge	L216
L215:
	movl	$1, %eax
	jmp	L217
L216:
	movl	$0, %eax
L217:
	testb	%al, %al
	je	L218
	movl	-76(%ebp), %eax
	addl	$28, %eax
	movl	$6, (%esp)
	movl	%eax, %ecx
	call	__ZNSt6vectorI8heapNodeSaIS0_EEixEj
	subl	$4, %esp
	movl	24(%eax), %ebx
	movl	-76(%ebp), %eax
	addl	$28, %eax
	movl	$7, (%esp)
	movl	%eax, %ecx
	call	__ZNSt6vectorI8heapNodeSaIS0_EEixEj
	subl	$4, %esp
	movl	24(%eax), %eax
	cmpl	%eax, %ebx
	setge	%al
	testb	%al, %al
	je	L219
	movl	-76(%ebp), %eax
	addl	$28, %eax
	movl	$6, (%esp)
	movl	%eax, %ecx
	call	__ZNSt6vectorI8heapNodeSaIS0_EEixEj
	subl	$4, %esp
	movl	%eax, %edx
	movl	16(%ebp), %eax
	addl	$32, %eax
	movl	%edx, (%esp)
	movl	%eax, %ecx
	call	__ZN8heapNodeaSERKS_
	subl	$4, %esp
	movl	20(%ebp), %eax
	leal	4(%eax), %ebx
	movl	-76(%ebp), %eax
	addl	$28, %eax
	movl	$6, (%esp)
	movl	%eax, %ecx
	call	__ZNSt6vectorI8heapNodeSaIS0_EEixEj
	subl	$4, %esp
	movl	%eax, (%ebx)
	jmp	L218
L219:
	movl	-76(%ebp), %eax
	addl	$28, %eax
	movl	$7, (%esp)
	movl	%eax, %ecx
	call	__ZNSt6vectorI8heapNodeSaIS0_EEixEj
	subl	$4, %esp
	movl	%eax, %edx
	movl	16(%ebp), %eax
	addl	$32, %eax
	movl	%edx, (%esp)
	movl	%eax, %ecx
	call	__ZN8heapNodeaSERKS_
	subl	$4, %esp
	movl	20(%ebp), %eax
	leal	4(%eax), %ebx
	movl	-76(%ebp), %eax
	addl	$28, %eax
	movl	$7, (%esp)
	movl	%eax, %ecx
	call	__ZNSt6vectorI8heapNodeSaIS0_EEixEj
	subl	$4, %esp
	movl	%eax, (%ebx)
L218:
	movl	-76(%ebp), %eax
	addl	$4, %eax
	movl	%eax, 4(%esp)
	movl	$__ZSt4cout, (%esp)
	call	__ZStlsIcSt11char_traitsIcESaIcEERSt13basic_ostreamIT_T0_ES7_RKNSt7__cxx1112basic_stringIS4_S5_T1_EE
	movl	$LC14, 4(%esp)
	movl	%eax, (%esp)
	call	__ZStlsISt11char_traitsIcEERSt13basic_ostreamIcT_ES5_PKc
	movl	$__ZSt4endlIcSt11char_traitsIcEERSt13basic_ostreamIT_T0_ES6_, (%esp)
	movl	%eax, %ecx
	call	__ZNSolsEPFRSoS_E
	subl	$4, %esp
	movl	16(%ebp), %eax
	addl	$64, %eax
	movl	%eax, %ebx
	movl	16(%ebp), %eax
	addl	$32, %eax
	movl	%eax, %esi
	movl	16(%ebp), %eax
	movl	%eax, 4(%esp)
	movl	$__ZSt4cout, (%esp)
	call	__ZStlsIcSt11char_traitsIcESaIcEERSt13basic_ostreamIT_T0_ES7_RKNSt7__cxx1112basic_stringIS4_S5_T1_EE
	movl	$LC15, 4(%esp)
	movl	%eax, (%esp)
	call	__ZStlsISt11char_traitsIcEERSt13basic_ostreamIcT_ES5_PKc
	movl	%esi, 4(%esp)
	movl	%eax, (%esp)
	call	__ZStlsIcSt11char_traitsIcESaIcEERSt13basic_ostreamIT_T0_ES7_RKNSt7__cxx1112basic_stringIS4_S5_T1_EE
	movl	$LC15, 4(%esp)
	movl	%eax, (%esp)
	call	__ZStlsISt11char_traitsIcEERSt13basic_ostreamIcT_ES5_PKc
	movl	%ebx, 4(%esp)
	movl	%eax, (%esp)
	call	__ZStlsIcSt11char_traitsIcESaIcEERSt13basic_ostreamIT_T0_ES7_RKNSt7__cxx1112basic_stringIS4_S5_T1_EE
	movl	$__ZSt4endlIcSt11char_traitsIcEERSt13basic_ostreamIT_T0_ES6_, (%esp)
	movl	%eax, %ecx
	call	__ZNSolsEPFRSoS_E
	subl	$4, %esp
	movl	-80(%ebp), %eax
	movl	$LC1, 4(%esp)
	movl	%eax, (%esp)
	call	__ZSteqIcSt11char_traitsIcESaIcEEbRKNSt7__cxx1112basic_stringIT_T0_T1_EEPKS5_
	testb	%al, %al
	je	L221
	movl	-76(%ebp), %eax
	leal	4(%eax), %edx
	movl	-80(%ebp), %eax
	movl	%edx, (%esp)
	movl	%eax, %ecx
	call	__ZNSt7__cxx1112basic_stringIcSt11char_traitsIcESaIcEEaSERKS4_
	subl	$4, %esp
	movl	$0, -44(%ebp)
L223:
	cmpl	$2, -44(%ebp)
	jg	L222
	movl	-44(%ebp), %eax
	sall	$5, %eax
	movl	%eax, %edx
	movl	16(%ebp), %eax
	addl	%eax, %edx
	movl	-44(%ebp), %eax
	sall	$5, %eax
	leal	16(%eax), %ecx
	movl	-80(%ebp), %eax
	addl	%ecx, %eax
	addl	$8, %eax
	movl	%edx, (%esp)
	movl	%eax, %ecx
	call	__ZN8heapNodeaSERKS_
	subl	$4, %esp
	addl	$1, -44(%ebp)
	jmp	L223
L222:
	movl	-80(%ebp), %eax
	movl	$0, 120(%eax)
	jmp	L230
L221:
	movl	-80(%ebp), %eax
	movl	120(%eax), %eax
	testl	%eax, %eax
	jne	L225
	movl	-76(%ebp), %eax
	leal	4(%eax), %edx
	movl	-28(%ebp), %eax
	movl	%edx, (%esp)
	movl	%eax, %ecx
	call	__ZNSt7__cxx1112basic_stringIcSt11char_traitsIcESaIcEEaSERKS4_
	subl	$4, %esp
	movl	$0, -48(%ebp)
L227:
	cmpl	$2, -48(%ebp)
	jg	L226
	movl	-48(%ebp), %eax
	sall	$5, %eax
	movl	%eax, %edx
	movl	16(%ebp), %eax
	addl	%eax, %edx
	movl	-48(%ebp), %eax
	sall	$5, %eax
	leal	16(%eax), %ecx
	movl	-28(%ebp), %eax
	addl	%ecx, %eax
	addl	$8, %eax
	movl	%edx, (%esp)
	movl	%eax, %ecx
	call	__ZN8heapNodeaSERKS_
	subl	$4, %esp
	addl	$1, -48(%ebp)
	jmp	L227
L226:
	movl	-28(%ebp), %eax
	movl	$0, 120(%eax)
	movl	-80(%ebp), %eax
	movl	-28(%ebp), %edx
	movl	%edx, 120(%eax)
	jmp	L230
L225:
	movl	$124, (%esp)
	call	__Znwj
	movl	%eax, %ebx
	movl	%ebx, %ecx
	call	__ZN9LLstorageC1Ev
	movl	%ebx, -88(%ebp)
	movl	-76(%ebp), %eax
	leal	4(%eax), %edx
	movl	-88(%ebp), %eax
	movl	%edx, (%esp)
	movl	%eax, %ecx
	call	__ZNSt7__cxx1112basic_stringIcSt11char_traitsIcESaIcEEaSERKS4_
	subl	$4, %esp
	movl	$0, -52(%ebp)
L229:
	cmpl	$2, -52(%ebp)
	jg	L228
	movl	-52(%ebp), %eax
	sall	$5, %eax
	movl	%eax, %edx
	movl	16(%ebp), %eax
	addl	%eax, %edx
	movl	-52(%ebp), %eax
	sall	$5, %eax
	leal	16(%eax), %ecx
	movl	-88(%ebp), %eax
	addl	%ecx, %eax
	addl	$8, %eax
	movl	%edx, (%esp)
	movl	%eax, %ecx
	call	__ZN8heapNodeaSERKS_
	subl	$4, %esp
	addl	$1, -52(%ebp)
	jmp	L229
L228:
	movl	-88(%ebp), %eax
	movl	$0, 120(%eax)
	movl	-28(%ebp), %eax
	movl	-88(%ebp), %edx
	movl	%edx, 120(%eax)
	movl	-28(%ebp), %eax
	movl	120(%eax), %eax
	movl	%eax, -28(%ebp)
	jmp	L230
L206:
	movzbl	-29(%ebp), %eax
	xorl	$1, %eax
	testb	%al, %al
	je	L230
	movb	$1, -30(%ebp)
L230:
	leal	-296(%ebp), %eax
	leal	-248(%ebp), %edx
	movl	%edx, (%esp)
	movl	%eax, %ecx
	call	__ZNSt7__cxx1112basic_stringIcSt11char_traitsIcESaIcEEpLERKS4_
	subl	$4, %esp
	jmp	L231
L201:
	cmpb	$0, -30(%ebp)
	je	L232
	movl	28(%ebp), %eax
	movb	$0, (%eax)
	movl	$LC16, 4(%esp)
	movl	$__ZSt4cout, (%esp)
	call	__ZStlsISt11char_traitsIcEERSt13basic_ostreamIcT_ES5_PKc
	movl	$__ZSt4endlIcSt11char_traitsIcEERSt13basic_ostreamIT_T0_ES6_, (%esp)
	movl	%eax, %ecx
	call	__ZNSolsEPFRSoS_E
	subl	$4, %esp
	movl	$__ZSt4endlIcSt11char_traitsIcEERSt13basic_ostreamIT_T0_ES6_, (%esp)
	movl	$__ZSt4cout, %ecx
	call	__ZNSolsEPFRSoS_E
LEHE45:
	subl	$4, %esp
	movl	$0, %ebx
	jmp	L233
L232:
	leal	-320(%ebp), %eax
	movl	%eax, %ecx
	call	__ZNSt7__cxx1112basic_stringIcSt11char_traitsIcESaIcEEC1Ev
	leal	-344(%ebp), %eax
	movl	%eax, %ecx
	call	__ZNSt7__cxx1112basic_stringIcSt11char_traitsIcESaIcEEC1Ev
	movl	$__ZSt4endlIcSt11char_traitsIcEERSt13basic_ostreamIT_T0_ES6_, (%esp)
	movl	$__ZSt4cout, %ecx
LEHB46:
	call	__ZNSolsEPFRSoS_E
	subl	$4, %esp
	movl	$LC17, 4(%esp)
	movl	$__ZSt4cout, (%esp)
	call	__ZStlsISt11char_traitsIcEERSt13basic_ostreamIcT_ES5_PKc
	movl	$__ZSt4endlIcSt11char_traitsIcEERSt13basic_ostreamIT_T0_ES6_, (%esp)
	movl	%eax, %ecx
	call	__ZNSolsEPFRSoS_E
	subl	$4, %esp
L260:
	leal	-320(%ebp), %eax
	movl	%eax, 4(%esp)
	movl	$__ZSt3cin, (%esp)
	call	__ZStrsIcSt11char_traitsIcESaIcEERSt13basic_istreamIT_T0_ES7_RNSt7__cxx1112basic_stringIS4_S5_T1_EE
	movl	$0, -56(%ebp)
L235:
	leal	-320(%ebp), %eax
	movl	%eax, %ecx
	call	__ZNKSt7__cxx1112basic_stringIcSt11char_traitsIcESaIcEE6lengthEv
	movl	%eax, %edx
	movl	-56(%ebp), %eax
	cmpl	%eax, %edx
	seta	%al
	testb	%al, %al
	je	L234
	movl	-56(%ebp), %edx
	leal	-320(%ebp), %eax
	movl	%edx, (%esp)
	movl	%eax, %ecx
	call	__ZNSt7__cxx1112basic_stringIcSt11char_traitsIcESaIcEEixEj
	subl	$4, %esp
	movl	%eax, %ebx
	movl	-56(%ebp), %edx
	leal	-320(%ebp), %eax
	movl	%edx, (%esp)
	movl	%eax, %ecx
	call	__ZNSt7__cxx1112basic_stringIcSt11char_traitsIcESaIcEEixEj
	subl	$4, %esp
	movzbl	(%eax), %eax
	movsbl	%al, %eax
	movl	%eax, (%esp)
	call	_tolower
	movb	%al, (%ebx)
	addl	$1, -56(%ebp)
	jmp	L235
L234:
	leal	-344(%ebp), %eax
	movl	%eax, 4(%esp)
	movl	$__ZSt3cin, (%esp)
	call	__ZSt7getlineIcSt11char_traitsIcESaIcEERSt13basic_istreamIT_T0_ES7_RNSt7__cxx1112basic_stringIS4_S5_T1_EE
	movl	$LC18, 4(%esp)
	leal	-320(%ebp), %eax
	movl	%eax, (%esp)
	call	__ZSteqIcSt11char_traitsIcESaIcEEbRKNSt7__cxx1112basic_stringIT_T0_T1_EEPKS5_
	testb	%al, %al
	jne	L236
	movl	$LC19, 4(%esp)
	leal	-320(%ebp), %eax
	movl	%eax, (%esp)
	call	__ZSteqIcSt11char_traitsIcESaIcEEbRKNSt7__cxx1112basic_stringIT_T0_T1_EEPKS5_
	testb	%al, %al
	jne	L236
	movl	$LC20, 4(%esp)
	leal	-320(%ebp), %eax
	movl	%eax, (%esp)
	call	__ZSteqIcSt11char_traitsIcESaIcEEbRKNSt7__cxx1112basic_stringIT_T0_T1_EEPKS5_
	testb	%al, %al
	je	L237
L236:
	movl	$1, %eax
	jmp	L238
L237:
	movl	$0, %eax
L238:
	testb	%al, %al
	je	L239
	movl	28(%ebp), %eax
	movb	$0, (%eax)
	movl	$__ZSt4endlIcSt11char_traitsIcEERSt13basic_ostreamIT_T0_ES6_, (%esp)
	movl	$__ZSt4cout, %ecx
	call	__ZNSolsEPFRSoS_E
LEHE46:
	subl	$4, %esp
	movl	-80(%ebp), %eax
	movl	%eax, -60(%ebp)
L254:
	cmpl	$0, -60(%ebp)
	je	L291
	leal	-368(%ebp), %eax
	movl	%eax, %ecx
	call	__ZNSt7__cxx1112basic_stringIcSt11char_traitsIcESaIcEEC1Ev
	movl	-60(%ebp), %edx
	leal	-116(%ebp), %eax
	movl	%edx, (%esp)
	movl	%eax, %ecx
LEHB47:
	call	__ZNSt7__cxx1112basic_stringIcSt11char_traitsIcESaIcEEC1ERKS4_
LEHE47:
	subl	$4, %esp
	movl	12(%ebp), %eax
	leal	-116(%ebp), %edx
	movl	%edx, (%esp)
	movl	%eax, %ecx
LEHB48:
	call	__ZN7hashLib11getHashNodeENSt7__cxx1112basic_stringIcSt11char_traitsIcESaIcEEE
LEHE48:
	subl	$4, %esp
	movl	%eax, -92(%ebp)
	leal	-116(%ebp), %eax
	movl	%eax, %ecx
	call	__ZNSt7__cxx1112basic_stringIcSt11char_traitsIcESaIcEED1Ev
	movl	$LC21, 4(%esp)
	movl	$__ZSt4cout, (%esp)
LEHB49:
	call	__ZStlsISt11char_traitsIcEERSt13basic_ostreamIcT_ES5_PKc
	movl	$__ZSt4endlIcSt11char_traitsIcEERSt13basic_ostreamIT_T0_ES6_, (%esp)
	movl	%eax, %ecx
	call	__ZNSolsEPFRSoS_E
	subl	$4, %esp
	movl	-60(%ebp), %eax
	movl	%eax, 4(%esp)
	movl	$__ZSt4cout, (%esp)
	call	__ZStlsIcSt11char_traitsIcESaIcEERSt13basic_ostreamIT_T0_ES7_RKNSt7__cxx1112basic_stringIS4_S5_T1_EE
	movl	$__ZSt4endlIcSt11char_traitsIcEERSt13basic_ostreamIT_T0_ES6_, (%esp)
	movl	%eax, %ecx
	call	__ZNSolsEPFRSoS_E
	subl	$4, %esp
	movl	-60(%ebp), %eax
	leal	88(%eax), %ebx
	movl	-60(%ebp), %eax
	leal	56(%eax), %esi
	movl	-60(%ebp), %eax
	leal	24(%eax), %edi
	movl	$LC22, 4(%esp)
	movl	$__ZSt4cout, (%esp)
	call	__ZStlsISt11char_traitsIcEERSt13basic_ostreamIcT_ES5_PKc
	movl	%edi, 4(%esp)
	movl	%eax, (%esp)
	call	__ZStlsIcSt11char_traitsIcESaIcEERSt13basic_ostreamIT_T0_ES7_RKNSt7__cxx1112basic_stringIS4_S5_T1_EE
	movl	$LC23, 4(%esp)
	movl	%eax, (%esp)
	call	__ZStlsISt11char_traitsIcEERSt13basic_ostreamIcT_ES5_PKc
	movl	%esi, 4(%esp)
	movl	%eax, (%esp)
	call	__ZStlsIcSt11char_traitsIcESaIcEERSt13basic_ostreamIT_T0_ES7_RKNSt7__cxx1112basic_stringIS4_S5_T1_EE
	movl	$LC24, 4(%esp)
	movl	%eax, (%esp)
	call	__ZStlsISt11char_traitsIcEERSt13basic_ostreamIcT_ES5_PKc
	movl	%ebx, 4(%esp)
	movl	%eax, (%esp)
	call	__ZStlsIcSt11char_traitsIcESaIcEERSt13basic_ostreamIT_T0_ES7_RKNSt7__cxx1112basic_stringIS4_S5_T1_EE
	movl	$__ZSt4endlIcSt11char_traitsIcEERSt13basic_ostreamIT_T0_ES6_, (%esp)
	movl	%eax, %ecx
	call	__ZNSolsEPFRSoS_E
	subl	$4, %esp
	leal	-368(%ebp), %eax
	movl	%eax, 4(%esp)
	movl	$__ZSt3cin, (%esp)
	call	__ZStrsIcSt11char_traitsIcESaIcEERSt13basic_istreamIT_T0_ES7_RNSt7__cxx1112basic_stringIS4_S5_T1_EE
	leal	-344(%ebp), %eax
	movl	%eax, 4(%esp)
	movl	$__ZSt3cin, (%esp)
	call	__ZSt7getlineIcSt11char_traitsIcESaIcEERSt13basic_istreamIT_T0_ES7_RNSt7__cxx1112basic_stringIS4_S5_T1_EE
	movl	$LC25, 4(%esp)
	leal	-368(%ebp), %eax
	movl	%eax, (%esp)
	call	__ZSteqIcSt11char_traitsIcESaIcEEbRKNSt7__cxx1112basic_stringIT_T0_T1_EEPKS5_
	testb	%al, %al
	je	L241
	movl	28(%ebp), %eax
	movb	$1, (%eax)
	movl	$1, -64(%ebp)
L244:
	movl	-92(%ebp), %eax
	addl	$28, %eax
	movl	%eax, %ecx
	call	__ZNKSt6vectorI8heapNodeSaIS0_EE4sizeEv
	movl	%eax, %edx
	movl	-64(%ebp), %eax
	cmpl	%eax, %edx
	seta	%al
	testb	%al, %al
	je	L245
	movl	-60(%ebp), %eax
	leal	24(%eax), %ebx
	movl	-64(%ebp), %eax
	movl	-92(%ebp), %edx
	addl	$28, %edx
	movl	%eax, (%esp)
	movl	%edx, %ecx
	call	__ZNSt6vectorI8heapNodeSaIS0_EEixEj
	subl	$4, %esp
	movl	%ebx, 4(%esp)
	movl	%eax, (%esp)
	call	__ZSteqIcEN9__gnu_cxx11__enable_ifIXsrSt9__is_charIT_E7__valueEbE6__typeERKNSt7__cxx1112basic_stringIS3_St11char_traitsIS3_ESaIS3_EEESE_
	testb	%al, %al
	je	L243
	movl	-64(%ebp), %eax
	movl	-92(%ebp), %edx
	addl	$28, %edx
	movl	%eax, (%esp)
	movl	%edx, %ecx
	call	__ZNSt6vectorI8heapNodeSaIS0_EEixEj
	subl	$4, %esp
	movl	24(%eax), %edx
	addl	$1, %edx
	movl	%edx, 24(%eax)
	movl	-92(%ebp), %eax
	movl	-64(%ebp), %edx
	movl	%edx, (%esp)
	movl	%eax, %ecx
	call	__ZN8hashNode12repairUpwardEi
	subl	$4, %esp
	jmp	L245
L243:
	addl	$1, -64(%ebp)
	jmp	L244
L241:
	movl	$LC26, 4(%esp)
	leal	-368(%ebp), %eax
	movl	%eax, (%esp)
	call	__ZSteqIcSt11char_traitsIcESaIcEEbRKNSt7__cxx1112basic_stringIT_T0_T1_EEPKS5_
	testb	%al, %al
	je	L246
	movl	28(%ebp), %eax
	movb	$1, (%eax)
	movl	$1, -68(%ebp)
L249:
	movl	-92(%ebp), %eax
	addl	$28, %eax
	movl	%eax, %ecx
	call	__ZNKSt6vectorI8heapNodeSaIS0_EE4sizeEv
	movl	%eax, %edx
	movl	-68(%ebp), %eax
	cmpl	%eax, %edx
	seta	%al
	testb	%al, %al
	je	L245
	movl	-60(%ebp), %eax
	leal	56(%eax), %ebx
	movl	-68(%ebp), %eax
	movl	-92(%ebp), %edx
	addl	$28, %edx
	movl	%eax, (%esp)
	movl	%edx, %ecx
	call	__ZNSt6vectorI8heapNodeSaIS0_EEixEj
	subl	$4, %esp
	movl	%ebx, 4(%esp)
	movl	%eax, (%esp)
	call	__ZSteqIcEN9__gnu_cxx11__enable_ifIXsrSt9__is_charIT_E7__valueEbE6__typeERKNSt7__cxx1112basic_stringIS3_St11char_traitsIS3_ESaIS3_EEESE_
	testb	%al, %al
	je	L248
	movl	-68(%ebp), %eax
	movl	-92(%ebp), %edx
	addl	$28, %edx
	movl	%eax, (%esp)
	movl	%edx, %ecx
	call	__ZNSt6vectorI8heapNodeSaIS0_EEixEj
	subl	$4, %esp
	movl	24(%eax), %edx
	addl	$1, %edx
	movl	%edx, 24(%eax)
	movl	-92(%ebp), %eax
	movl	-68(%ebp), %edx
	movl	%edx, (%esp)
	movl	%eax, %ecx
	call	__ZN8hashNode12repairUpwardEi
	subl	$4, %esp
	jmp	L245
L248:
	addl	$1, -68(%ebp)
	jmp	L249
L246:
	movl	$LC27, 4(%esp)
	leal	-368(%ebp), %eax
	movl	%eax, (%esp)
	call	__ZSteqIcSt11char_traitsIcESaIcEEbRKNSt7__cxx1112basic_stringIT_T0_T1_EEPKS5_
	testb	%al, %al
	je	L245
	movl	28(%ebp), %eax
	movb	$1, (%eax)
	movl	$1, -72(%ebp)
L252:
	movl	-92(%ebp), %eax
	addl	$28, %eax
	movl	%eax, %ecx
	call	__ZNKSt6vectorI8heapNodeSaIS0_EE4sizeEv
	movl	%eax, %edx
	movl	-72(%ebp), %eax
	cmpl	%eax, %edx
	seta	%al
	testb	%al, %al
	je	L245
	movl	-60(%ebp), %eax
	leal	88(%eax), %ebx
	movl	-72(%ebp), %eax
	movl	-92(%ebp), %edx
	addl	$28, %edx
	movl	%eax, (%esp)
	movl	%edx, %ecx
	call	__ZNSt6vectorI8heapNodeSaIS0_EEixEj
	subl	$4, %esp
	movl	%ebx, 4(%esp)
	movl	%eax, (%esp)
	call	__ZSteqIcEN9__gnu_cxx11__enable_ifIXsrSt9__is_charIT_E7__valueEbE6__typeERKNSt7__cxx1112basic_stringIS3_St11char_traitsIS3_ESaIS3_EEESE_
	testb	%al, %al
	je	L251
	movl	-72(%ebp), %eax
	movl	-92(%ebp), %edx
	addl	$28, %edx
	movl	%eax, (%esp)
	movl	%edx, %ecx
	call	__ZNSt6vectorI8heapNodeSaIS0_EEixEj
	subl	$4, %esp
	movl	24(%eax), %edx
	addl	$1, %edx
	movl	%edx, 24(%eax)
	movl	-92(%ebp), %eax
	movl	-72(%ebp), %edx
	movl	%edx, (%esp)
	movl	%eax, %ecx
	call	__ZN8hashNode12repairUpwardEi
	subl	$4, %esp
	jmp	L245
L251:
	addl	$1, -72(%ebp)
	jmp	L252
L245:
	movl	28(%ebp), %eax
	movzbl	(%eax), %eax
	testb	%al, %al
	je	L253
	movl	$LC28, 4(%esp)
	movl	$__ZSt4cout, (%esp)
	call	__ZStlsISt11char_traitsIcEERSt13basic_ostreamIcT_ES5_PKc
	movl	$__ZSt4endlIcSt11char_traitsIcEERSt13basic_ostreamIT_T0_ES6_, (%esp)
	movl	%eax, %ecx
	call	__ZNSolsEPFRSoS_E
	subl	$4, %esp
L253:
	movl	$__ZSt4endlIcSt11char_traitsIcEERSt13basic_ostreamIT_T0_ES6_, (%esp)
	movl	$__ZSt4cout, %ecx
	call	__ZNSolsEPFRSoS_E
LEHE49:
	subl	$4, %esp
	movl	-60(%ebp), %eax
	movl	120(%eax), %eax
	movl	%eax, -60(%ebp)
	leal	-368(%ebp), %eax
	movl	%eax, %ecx
	call	__ZNSt7__cxx1112basic_stringIcSt11char_traitsIcESaIcEED1Ev
	jmp	L254
L239:
	movl	$LC29, 4(%esp)
	leal	-320(%ebp), %eax
	movl	%eax, (%esp)
LEHB50:
	call	__ZSteqIcSt11char_traitsIcESaIcEEbRKNSt7__cxx1112basic_stringIT_T0_T1_EEPKS5_
	testb	%al, %al
	jne	L256
	movl	$LC30, 4(%esp)
	leal	-320(%ebp), %eax
	movl	%eax, (%esp)
	call	__ZSteqIcSt11char_traitsIcESaIcEEbRKNSt7__cxx1112basic_stringIT_T0_T1_EEPKS5_
	testb	%al, %al
	jne	L256
	movl	$LC31, 4(%esp)
	leal	-320(%ebp), %eax
	movl	%eax, (%esp)
	call	__ZSteqIcSt11char_traitsIcESaIcEEbRKNSt7__cxx1112basic_stringIT_T0_T1_EEPKS5_
	testb	%al, %al
	je	L257
L256:
	movl	$1, %eax
	jmp	L258
L257:
	movl	$0, %eax
L258:
	testb	%al, %al
	je	L260
	movl	28(%ebp), %eax
	movb	$0, (%eax)
	movl	$__ZSt4endlIcSt11char_traitsIcEERSt13basic_ostreamIT_T0_ES6_, (%esp)
	movl	$__ZSt4cout, %ecx
	call	__ZNSolsEPFRSoS_E
LEHE50:
	subl	$4, %esp
	jmp	L255
L291:
	nop
L255:
	leal	-344(%ebp), %eax
	movl	%eax, %ecx
	call	__ZNSt7__cxx1112basic_stringIcSt11char_traitsIcESaIcEED1Ev
	leal	-320(%ebp), %eax
	movl	%eax, %ecx
	call	__ZNSt7__cxx1112basic_stringIcSt11char_traitsIcESaIcEED1Ev
	movl	$1, %ebx
L233:
	leal	-296(%ebp), %eax
	movl	%eax, %ecx
	call	__ZNSt7__cxx1112basic_stringIcSt11char_traitsIcESaIcEED1Ev
	cmpl	$1, %ebx
	je	L292
	movl	$0, %ebx
	jmp	L264
L292:
	nop
	movl	$1, %ebx
L264:
	leal	-272(%ebp), %eax
	movl	%eax, %ecx
	call	__ZNSt7__cxx1112basic_stringIcSt11char_traitsIcESaIcEED1Ev
	cmpl	$1, %ebx
	je	L293
	movl	$0, %ebx
	jmp	L268
L293:
	nop
	movl	$1, %ebx
L268:
	leal	-248(%ebp), %eax
	movl	%eax, %ecx
	call	__ZNSt7__cxx1112basic_stringIcSt11char_traitsIcESaIcEED1Ev
	cmpl	$1, %ebx
	jmp	L198
L281:
	movl	%eax, %ebx
	leal	-224(%ebp), %eax
	movl	%eax, %ecx
	call	__ZNSt7__cxx1112basic_stringIcSt11char_traitsIcESaIcEED1Ev
	movl	%ebx, %eax
	movl	%eax, (%esp)
LEHB51:
	call	__Unwind_Resume
L286:
	movl	%eax, %ebx
	leal	-152(%ebp), %eax
	movl	%eax, %ecx
	call	__ZNSt6vectorINSt7__cxx1112basic_stringIcSt11char_traitsIcESaIcEEESaIS5_EED1Ev
	jmp	L273
L285:
	movl	%eax, %ebx
L273:
	leal	-176(%ebp), %eax
	movl	%eax, %ecx
	call	__ZNSt7__cxx1112basic_stringIcSt11char_traitsIcESaIcEED1Ev
	jmp	L274
L284:
	movl	%eax, %ebx
L274:
	leal	-200(%ebp), %eax
	movl	%eax, %ecx
	call	__ZNSt7__cxx1112basic_stringIcSt11char_traitsIcESaIcEED1Ev
	jmp	L275
L287:
	movl	%eax, %ebx
	leal	-140(%ebp), %eax
	movl	%eax, %ecx
	call	__ZNSt7__cxx1112basic_stringIcSt11char_traitsIcESaIcEED1Ev
	jmp	L275
L290:
	movl	%eax, %ebx
	leal	-116(%ebp), %eax
	movl	%eax, %ecx
	call	__ZNSt7__cxx1112basic_stringIcSt11char_traitsIcESaIcEED1Ev
	jmp	L278
L289:
	movl	%eax, %ebx
L278:
	leal	-368(%ebp), %eax
	movl	%eax, %ecx
	call	__ZNSt7__cxx1112basic_stringIcSt11char_traitsIcESaIcEED1Ev
	jmp	L279
L288:
	movl	%eax, %ebx
L279:
	leal	-344(%ebp), %eax
	movl	%eax, %ecx
	call	__ZNSt7__cxx1112basic_stringIcSt11char_traitsIcESaIcEED1Ev
	leal	-320(%ebp), %eax
	movl	%eax, %ecx
	call	__ZNSt7__cxx1112basic_stringIcSt11char_traitsIcESaIcEED1Ev
	jmp	L275
L283:
	movl	%eax, %ebx
L275:
	leal	-296(%ebp), %eax
	movl	%eax, %ecx
	call	__ZNSt7__cxx1112basic_stringIcSt11char_traitsIcESaIcEED1Ev
	leal	-272(%ebp), %eax
	movl	%eax, %ecx
	call	__ZNSt7__cxx1112basic_stringIcSt11char_traitsIcESaIcEED1Ev
	jmp	L280
L282:
	movl	%eax, %ebx
L280:
	leal	-248(%ebp), %eax
	movl	%eax, %ecx
	call	__ZNSt7__cxx1112basic_stringIcSt11char_traitsIcESaIcEED1Ev
	movl	%ebx, %eax
	movl	%eax, (%esp)
	call	__Unwind_Resume
LEHE51:
L198:
	leal	-12(%ebp), %esp
	popl	%ebx
	.cfi_restore 3
	popl	%esi
	.cfi_restore 6
	popl	%edi
	.cfi_restore 7
	popl	%ebp
	.cfi_restore 5
	.cfi_def_cfa 4, 4
	ret
	.cfi_endproc
LFE2415:
	.section	.gcc_except_table,"w"
LLSDA2415:
	.byte	0xff
	.byte	0xff
	.byte	0x1
	.uleb128 LLSDACSE2415-LLSDACSB2415
LLSDACSB2415:
	.uleb128 LEHB35-LFB2415
	.uleb128 LEHE35-LEHB35
	.uleb128 0
	.uleb128 0
	.uleb128 LEHB36-LFB2415
	.uleb128 LEHE36-LEHB36
	.uleb128 L281-LFB2415
	.uleb128 0
	.uleb128 LEHB37-LFB2415
	.uleb128 LEHE37-LEHB37
	.uleb128 0
	.uleb128 0
	.uleb128 LEHB38-LFB2415
	.uleb128 LEHE38-LEHB38
	.uleb128 L282-LFB2415
	.uleb128 0
	.uleb128 LEHB39-LFB2415
	.uleb128 LEHE39-LEHB39
	.uleb128 L283-LFB2415
	.uleb128 0
	.uleb128 LEHB40-LFB2415
	.uleb128 LEHE40-LEHB40
	.uleb128 L284-LFB2415
	.uleb128 0
	.uleb128 LEHB41-LFB2415
	.uleb128 LEHE41-LEHB41
	.uleb128 L285-LFB2415
	.uleb128 0
	.uleb128 LEHB42-LFB2415
	.uleb128 LEHE42-LEHB42
	.uleb128 L286-LFB2415
	.uleb128 0
	.uleb128 LEHB43-LFB2415
	.uleb128 LEHE43-LEHB43
	.uleb128 L283-LFB2415
	.uleb128 0
	.uleb128 LEHB44-LFB2415
	.uleb128 LEHE44-LEHB44
	.uleb128 L287-LFB2415
	.uleb128 0
	.uleb128 LEHB45-LFB2415
	.uleb128 LEHE45-LEHB45
	.uleb128 L283-LFB2415
	.uleb128 0
	.uleb128 LEHB46-LFB2415
	.uleb128 LEHE46-LEHB46
	.uleb128 L288-LFB2415
	.uleb128 0
	.uleb128 LEHB47-LFB2415
	.uleb128 LEHE47-LEHB47
	.uleb128 L289-LFB2415
	.uleb128 0
	.uleb128 LEHB48-LFB2415
	.uleb128 LEHE48-LEHB48
	.uleb128 L290-LFB2415
	.uleb128 0
	.uleb128 LEHB49-LFB2415
	.uleb128 LEHE49-LEHB49
	.uleb128 L289-LFB2415
	.uleb128 0
	.uleb128 LEHB50-LFB2415
	.uleb128 LEHE50-LEHB50
	.uleb128 L288-LFB2415
	.uleb128 0
	.uleb128 LEHB51-LFB2415
	.uleb128 LEHE51-LEHB51
	.uleb128 0
	.uleb128 0
LLSDACSE2415:
	.text
	.def	___main;	.scl	2;	.type	32;	.endef
	.section .rdata,"dr"
LC32:
	.ascii "Error reading file.\0"
	.align 4
LC33:
	.ascii "https://justenglish.me/2014/04/18/synonyms-for-the-96-most-commonly-used-words-in-english/\0"
LC34:
	.ascii "Success! Data Loaded!\0"
	.align 4
LC35:
	.ascii "Would you like to (I)mprove a sentence, (G)et advise on one, access the (L)ibrary, or do you want to (Q)uit?\0"
	.align 4
LC36:
	.ascii "Please enter a sentence to be improved:\0"
	.align 4
LC37:
	.ascii "Please enter a sentence to get advise on:\0"
	.align 4
LC38:
	.ascii "Would you like to see the updated sentence?\0"
	.align 4
LC39:
	.ascii "Would you like to see (R)ecognized words, or (S)ynonyms for a specific word?\0"
LC40:
	.ascii "R\0"
LC41:
	.ascii "r\0"
	.align 4
LC42:
	.ascii "NOTE: EVERY WORD SHOWN HERE IS RECOGNIZED, THE ARROWS AND NUMBERS DON'T MEAN MUCH, THIS IS SIMPLY A VISUALIZATION OF THE DATA.\0"
LC43:
	.ascii "S\0"
LC44:
	.ascii "s\0"
	.align 4
LC45:
	.ascii "What word would you like to see synonyms for?\0"
LC46:
	.ascii "Could not find word.\0"
LC47:
	.ascii ", \0"
	.align 4
LC48:
	.ascii "The earlier a synonym appears, the better it is.\0"
	.align 4
LC49:
	.ascii "Would you like to give feedback on a synonym?\0"
LC50:
	.ascii "Y\0"
LC51:
	.ascii "YES\0"
LC52:
	.ascii "Yes\0"
LC53:
	.ascii "yEs\0"
LC54:
	.ascii "yeS\0"
LC55:
	.ascii "YeS\0"
LC56:
	.ascii "yES\0"
LC57:
	.ascii "YEs\0"
LC58:
	.ascii "ye\0"
LC59:
	.ascii "Ye\0"
LC60:
	.ascii "yE\0"
	.align 4
LC61:
	.ascii "What synonym would you like to give feedback to?\0"
	.align 4
LC62:
	.ascii "Is this a good or bad synonym?\0"
LC63:
	.ascii "good\0"
LC64:
	.ascii "g\0"
LC65:
	.ascii "goo\0"
LC66:
	.ascii "go\0"
LC67:
	.ascii "b\0"
LC68:
	.ascii "ba\0"
LC69:
	.ascii "bad\0"
LC70:
	.ascii "Invalid input.\0"
LC71:
	.ascii "Could not find synonym\0"
	.align 4
LC72:
	.ascii "Would you like to give feedback on another synonym?\0"
LC73:
	.ascii "N\0"
LC74:
	.ascii "NO\0"
LC75:
	.ascii "No\0"
LC76:
	.ascii "nO\0"
LC77:
	.ascii "Goodbye.\0"
LC78:
	.ascii "Error, invalid input.\0"
	.text
	.globl	_main
	.def	_main;	.scl	2;	.type	32;	.endef
_main:
LFB2420:
	.cfi_startproc
	.cfi_personality 0,___gxx_personality_v0
	.cfi_lsda 0,LLSDA2420
	leal	4(%esp), %ecx
	.cfi_def_cfa 1, 0
	andl	$-16, %esp
	pushl	-4(%ecx)
	pushl	%ebp
	.cfi_escape 0x10,0x5,0x2,0x75,0
	movl	%esp, %ebp
	pushl	%edi
	pushl	%esi
	pushl	%ebx
	pushl	%ecx
	.cfi_escape 0xf,0x3,0x75,0x70,0x6
	.cfi_escape 0x10,0x7,0x2,0x75,0x7c
	.cfi_escape 0x10,0x6,0x2,0x75,0x78
	.cfi_escape 0x10,0x3,0x2,0x75,0x74
	subl	$1592, %esp
	movl	%ecx, %ebx
	call	___main
	leal	-469(%ebp), %eax
	movl	%eax, %ecx
	call	__ZNSaIcEC1Ev
	movl	4(%ebx), %eax
	addl	$4, %eax
	movl	(%eax), %edx
	leal	-496(%ebp), %eax
	leal	-469(%ebp), %ecx
	movl	%ecx, 4(%esp)
	movl	%edx, (%esp)
	movl	%eax, %ecx
LEHB52:
	call	__ZNSt7__cxx1112basic_stringIcSt11char_traitsIcESaIcEEC1EPKcRKS3_
LEHE52:
	subl	$8, %esp
	movl	$10, 8(%esp)
	movl	$0, 4(%esp)
	leal	-496(%ebp), %eax
	movl	%eax, (%esp)
LEHB53:
	call	__ZNSt7__cxx114stoiERKNS_12basic_stringIcSt11char_traitsIcESaIcEEEPji
	movl	%eax, %edx
	leal	-504(%ebp), %eax
	movl	%edx, (%esp)
	movl	%eax, %ecx
	call	__ZN7hashLibC1Ei
LEHE53:
	subl	$4, %esp
	leal	-496(%ebp), %eax
	movl	%eax, %ecx
	call	__ZNSt7__cxx1112basic_stringIcSt11char_traitsIcESaIcEED1Ev
	leal	-469(%ebp), %eax
	movl	%eax, %ecx
	call	__ZNSaIcED1Ev
	leal	-516(%ebp), %eax
	movl	%eax, %ecx
	call	__ZNSt6vectorINSt7__cxx1112basic_stringIcSt11char_traitsIcESaIcEEESaIS5_EEC1Ev
	leal	-768(%ebp), %eax
	movl	%eax, %ecx
LEHB54:
	call	__ZNSt14basic_ifstreamIcSt11char_traitsIcEEC1Ev
LEHE54:
	movl	4(%ebx), %eax
	addl	$8, %eax
	movl	(%eax), %edx
	leal	-768(%ebp), %eax
	movl	$8, 4(%esp)
	movl	%edx, (%esp)
	movl	%eax, %ecx
LEHB55:
	call	__ZNSt14basic_ifstreamIcSt11char_traitsIcEE4openEPKcSt13_Ios_Openmode
	subl	$8, %esp
	leal	-768(%ebp), %eax
	addl	$116, %eax
	movl	%eax, %ecx
	call	__ZNKSt9basic_iosIcSt11char_traitsIcEE4failEv
	testb	%al, %al
	je	L295
	movl	$LC32, 4(%esp)
	movl	$__ZSt4cout, (%esp)
	call	__ZStlsISt11char_traitsIcEERSt13basic_ostreamIcT_ES5_PKc
	movl	$__ZSt4endlIcSt11char_traitsIcEERSt13basic_ostreamIT_T0_ES6_, (%esp)
	movl	%eax, %ecx
	call	__ZNSolsEPFRSoS_E
	subl	$4, %esp
	leal	-768(%ebp), %eax
	movl	%eax, %ecx
	call	__ZNSt14basic_ifstreamIcSt11char_traitsIcEE5closeEv
LEHE55:
	movl	$0, %edi
	movl	$0, %ebx
	jmp	L296
L295:
	leal	-792(%ebp), %eax
	movl	%eax, %ecx
	call	__ZNSt7__cxx1112basic_stringIcSt11char_traitsIcESaIcEEC1Ev
L322:
	movl	$10, 8(%esp)
	leal	-792(%ebp), %eax
	movl	%eax, 4(%esp)
	leal	-768(%ebp), %eax
	movl	%eax, (%esp)
LEHB56:
	call	__ZSt7getlineIcSt11char_traitsIcESaIcEERSt13basic_istreamIT_T0_ES7_RNSt7__cxx1112basic_stringIS4_S5_T1_EES4_
	movl	(%eax), %edx
	subl	$12, %edx
	movl	(%edx), %edx
	addl	%edx, %eax
	movl	%eax, %ecx
	call	__ZNKSt9basic_iosIcSt11char_traitsIcEEcvbEv
	testb	%al, %al
	je	L297
	leal	-792(%ebp), %eax
	movl	%eax, %ecx
	call	__ZNKSt7__cxx1112basic_stringIcSt11char_traitsIcESaIcEE5emptyEv
	testb	%al, %al
	jne	L298
	movl	$LC33, 4(%esp)
	leal	-792(%ebp), %eax
	movl	%eax, (%esp)
	call	__ZSteqIcSt11char_traitsIcESaIcEEbRKNSt7__cxx1112basic_stringIT_T0_T1_EEPKS5_
LEHE56:
	testb	%al, %al
	je	L299
L298:
	movl	$1, %eax
	jmp	L300
L299:
	movl	$0, %eax
L300:
	testb	%al, %al
	jne	L496
	leal	-816(%ebp), %eax
	movl	%eax, %ecx
	call	__ZNSt7__cxx1112basic_stringIcSt11char_traitsIcESaIcEEC1Ev
	movl	$8, 4(%esp)
	movl	$16, (%esp)
	call	__ZStorSt13_Ios_OpenmodeS_
	movl	%eax, %edx
	leal	-1272(%ebp), %eax
	movl	%edx, (%esp)
	movl	%eax, %ecx
LEHB57:
	call	__ZNSt7__cxx1118basic_stringstreamIcSt11char_traitsIcESaIcEEC1ESt13_Ios_Openmode
LEHE57:
	subl	$4, %esp
	movl	$0, -28(%ebp)
L304:
	leal	-792(%ebp), %eax
	movl	%eax, %ecx
	call	__ZNKSt7__cxx1112basic_stringIcSt11char_traitsIcESaIcEE6lengthEv
	movl	%eax, %edx
	movl	-28(%ebp), %eax
	cmpl	%eax, %edx
	seta	%al
	testb	%al, %al
	je	L302
	movl	-28(%ebp), %edx
	leal	-792(%ebp), %eax
	movl	%edx, (%esp)
	movl	%eax, %ecx
LEHB58:
	call	__ZNSt7__cxx1112basic_stringIcSt11char_traitsIcESaIcEEixEj
	subl	$4, %esp
	movzbl	(%eax), %eax
	cmpb	$45, %al
	sete	%al
	testb	%al, %al
	je	L303
	movl	-28(%ebp), %eax
	subl	$1, %eax
	movl	%eax, %edx
	leal	-468(%ebp), %eax
	movl	%edx, 8(%esp)
	movl	$0, 4(%esp)
	leal	-792(%ebp), %edx
	movl	%edx, (%esp)
	movl	%eax, %ecx
	call	__ZNKSt7__cxx1112basic_stringIcSt11char_traitsIcESaIcEE6substrEjj
	subl	$12, %esp
	leal	-816(%ebp), %eax
	leal	-468(%ebp), %edx
	movl	%edx, (%esp)
	movl	%eax, %ecx
	call	__ZNSt7__cxx1112basic_stringIcSt11char_traitsIcESaIcEEaSEOS4_
	subl	$4, %esp
	leal	-468(%ebp), %eax
	movl	%eax, %ecx
	call	__ZNSt7__cxx1112basic_stringIcSt11char_traitsIcESaIcEED1Ev
	movl	-28(%ebp), %eax
	addl	$2, %eax
	movl	%eax, %edx
	leal	-444(%ebp), %eax
	movl	$-1, 8(%esp)
	movl	%edx, 4(%esp)
	leal	-792(%ebp), %edx
	movl	%edx, (%esp)
	movl	%eax, %ecx
	call	__ZNKSt7__cxx1112basic_stringIcSt11char_traitsIcESaIcEE6substrEjj
LEHE58:
	subl	$12, %esp
	leal	-444(%ebp), %eax
	movl	%eax, 4(%esp)
	leal	-1272(%ebp), %eax
	addl	$8, %eax
	movl	%eax, (%esp)
LEHB59:
	call	__ZStlsIcSt11char_traitsIcESaIcEERSt13basic_ostreamIT_T0_ES7_RKNSt7__cxx1112basic_stringIS4_S5_T1_EE
LEHE59:
	leal	-444(%ebp), %eax
	movl	%eax, %ecx
	call	__ZNSt7__cxx1112basic_stringIcSt11char_traitsIcESaIcEED1Ev
	jmp	L302
L303:
	addl	$1, -28(%ebp)
	jmp	L304
L302:
	leal	-420(%ebp), %eax
	leal	-816(%ebp), %edx
	movl	%edx, (%esp)
	movl	%eax, %ecx
LEHB60:
	call	__ZNSt7__cxx1112basic_stringIcSt11char_traitsIcESaIcEEC1ERKS4_
LEHE60:
	subl	$4, %esp
	leal	-504(%ebp), %eax
	leal	-420(%ebp), %edx
	movl	%edx, (%esp)
	movl	%eax, %ecx
LEHB61:
	call	__ZN7hashLib7addWordENSt7__cxx1112basic_stringIcSt11char_traitsIcESaIcEEE
LEHE61:
	subl	$4, %esp
	leal	-420(%ebp), %eax
	movl	%eax, %ecx
	call	__ZNSt7__cxx1112basic_stringIcSt11char_traitsIcESaIcEED1Ev
	leal	-840(%ebp), %eax
	movl	%eax, %ecx
	call	__ZNSt7__cxx1112basic_stringIcSt11char_traitsIcESaIcEEC1Ev
	leal	-864(%ebp), %eax
	movl	%eax, %ecx
	call	__ZNSt7__cxx1112basic_stringIcSt11char_traitsIcESaIcEEC1Ev
	leal	-876(%ebp), %eax
	movl	%eax, %ecx
	call	__ZNSt6vectorINSt7__cxx1112basic_stringIcSt11char_traitsIcESaIcEEESaIS5_EEC1Ev
	leal	-396(%ebp), %eax
	leal	-816(%ebp), %edx
	movl	%edx, (%esp)
	movl	%eax, %ecx
LEHB62:
	call	__ZNSt7__cxx1112basic_stringIcSt11char_traitsIcESaIcEEC1ERKS4_
LEHE62:
	subl	$4, %esp
	leal	-504(%ebp), %eax
	leal	-396(%ebp), %edx
	movl	%edx, (%esp)
	movl	%eax, %ecx
LEHB63:
	call	__ZN7hashLib11getHashNodeENSt7__cxx1112basic_stringIcSt11char_traitsIcESaIcEEE
LEHE63:
	subl	$4, %esp
	movl	%eax, -84(%ebp)
	leal	-396(%ebp), %eax
	movl	%eax, %ecx
	call	__ZNSt7__cxx1112basic_stringIcSt11char_traitsIcESaIcEED1Ev
L313:
	movl	$44, 8(%esp)
	leal	-864(%ebp), %eax
	movl	%eax, 4(%esp)
	leal	-1272(%ebp), %eax
	movl	%eax, (%esp)
LEHB64:
	call	__ZSt7getlineIcSt11char_traitsIcESaIcEERSt13basic_istreamIT_T0_ES7_RNSt7__cxx1112basic_stringIS4_S5_T1_EES4_
	movl	(%eax), %edx
	subl	$12, %edx
	movl	(%edx), %edx
	addl	%edx, %eax
	movl	%eax, %ecx
	call	__ZNKSt9basic_iosIcSt11char_traitsIcEEcvbEv
	testb	%al, %al
	je	L305
	leal	-864(%ebp), %eax
	movl	$0, (%esp)
	movl	%eax, %ecx
	call	__ZNSt7__cxx1112basic_stringIcSt11char_traitsIcESaIcEEixEj
	subl	$4, %esp
	movzbl	(%eax), %eax
	cmpb	$32, %al
	sete	%al
	testb	%al, %al
	je	L306
	leal	-864(%ebp), %eax
	movl	%eax, %ecx
	call	__ZNKSt7__cxx1112basic_stringIcSt11char_traitsIcESaIcEE5emptyEv
	testb	%al, %al
	jne	L497
	leal	-372(%ebp), %eax
	movl	$-1, 8(%esp)
	movl	$1, 4(%esp)
	leal	-864(%ebp), %edx
	movl	%edx, (%esp)
	movl	%eax, %ecx
	call	__ZNKSt7__cxx1112basic_stringIcSt11char_traitsIcESaIcEE6substrEjj
	subl	$12, %esp
	leal	-840(%ebp), %eax
	leal	-372(%ebp), %edx
	movl	%edx, (%esp)
	movl	%eax, %ecx
	call	__ZNSt7__cxx1112basic_stringIcSt11char_traitsIcESaIcEEaSEOS4_
	subl	$4, %esp
	leal	-372(%ebp), %eax
	movl	%eax, %ecx
	call	__ZNSt7__cxx1112basic_stringIcSt11char_traitsIcESaIcEED1Ev
	jmp	L308
L306:
	leal	-840(%ebp), %eax
	leal	-864(%ebp), %edx
	movl	%edx, (%esp)
	movl	%eax, %ecx
	call	__ZNSt7__cxx1112basic_stringIcSt11char_traitsIcESaIcEEaSERKS4_
	subl	$4, %esp
L308:
	leal	-348(%ebp), %eax
	leal	-840(%ebp), %edx
	movl	%edx, (%esp)
	movl	%eax, %ecx
	call	__ZNSt7__cxx1112basic_stringIcSt11char_traitsIcESaIcEEC1ERKS4_
LEHE64:
	subl	$4, %esp
	leal	-504(%ebp), %eax
	leal	-348(%ebp), %edx
	movl	%edx, (%esp)
	movl	%eax, %ecx
LEHB65:
	call	__ZN7hashLib11getHashNodeENSt7__cxx1112basic_stringIcSt11char_traitsIcESaIcEEE
LEHE65:
	subl	$4, %esp
	movl	%eax, -88(%ebp)
	leal	-348(%ebp), %eax
	movl	%eax, %ecx
	call	__ZNSt7__cxx1112basic_stringIcSt11char_traitsIcESaIcEED1Ev
	cmpl	$0, -88(%ebp)
	jne	L309
	leal	-324(%ebp), %eax
	leal	-840(%ebp), %edx
	movl	%edx, (%esp)
	movl	%eax, %ecx
LEHB66:
	call	__ZNSt7__cxx1112basic_stringIcSt11char_traitsIcESaIcEEC1ERKS4_
LEHE66:
	subl	$4, %esp
	leal	-504(%ebp), %eax
	leal	-324(%ebp), %edx
	movl	%edx, (%esp)
	movl	%eax, %ecx
LEHB67:
	call	__ZN7hashLib7addWordENSt7__cxx1112basic_stringIcSt11char_traitsIcESaIcEEE
LEHE67:
	subl	$4, %esp
	leal	-324(%ebp), %eax
	movl	%eax, %ecx
	call	__ZNSt7__cxx1112basic_stringIcSt11char_traitsIcESaIcEED1Ev
	movl	$0, -32(%ebp)
L312:
	leal	-840(%ebp), %eax
	movl	%eax, %ecx
	call	__ZNKSt7__cxx1112basic_stringIcSt11char_traitsIcESaIcEE6lengthEv
	movl	%eax, %edx
	movl	-32(%ebp), %eax
	cmpl	%eax, %edx
	seta	%al
	testb	%al, %al
	je	L309
	movl	-32(%ebp), %edx
	leal	-840(%ebp), %eax
	movl	%edx, (%esp)
	movl	%eax, %ecx
LEHB68:
	call	__ZNSt7__cxx1112basic_stringIcSt11char_traitsIcESaIcEEixEj
	subl	$4, %esp
	movzbl	(%eax), %eax
	cmpb	$32, %al
	sete	%al
	testb	%al, %al
	je	L311
	leal	-516(%ebp), %eax
	leal	-840(%ebp), %edx
	movl	%edx, (%esp)
	movl	%eax, %ecx
	call	__ZNSt6vectorINSt7__cxx1112basic_stringIcSt11char_traitsIcESaIcEEESaIS5_EE9push_backERKS5_
	subl	$4, %esp
	jmp	L309
L311:
	addl	$1, -32(%ebp)
	jmp	L312
L309:
	leal	-300(%ebp), %eax
	leal	-840(%ebp), %edx
	movl	%edx, (%esp)
	movl	%eax, %ecx
	call	__ZNSt7__cxx1112basic_stringIcSt11char_traitsIcESaIcEEC1ERKS4_
LEHE68:
	subl	$4, %esp
	movl	-84(%ebp), %eax
	movl	$0, 8(%esp)
	movl	$1, 4(%esp)
	leal	-300(%ebp), %edx
	movl	%edx, (%esp)
	movl	%eax, %ecx
LEHB69:
	call	__ZN8hashNode6addSynENSt7__cxx1112basic_stringIcSt11char_traitsIcESaIcEEEii
LEHE69:
	subl	$12, %esp
	leal	-300(%ebp), %eax
	movl	%eax, %ecx
	call	__ZNSt7__cxx1112basic_stringIcSt11char_traitsIcESaIcEED1Ev
	leal	-876(%ebp), %eax
	leal	-840(%ebp), %edx
	movl	%edx, (%esp)
	movl	%eax, %ecx
LEHB70:
	call	__ZNSt6vectorINSt7__cxx1112basic_stringIcSt11char_traitsIcESaIcEEESaIS5_EE9push_backERKS5_
	subl	$4, %esp
	jmp	L313
L497:
	nop
L305:
	movl	$0, -36(%ebp)
L315:
	leal	-816(%ebp), %eax
	movl	%eax, %ecx
	call	__ZNKSt7__cxx1112basic_stringIcSt11char_traitsIcESaIcEE4sizeEv
	movl	%eax, %edx
	movl	-36(%ebp), %eax
	cmpl	%eax, %edx
	seta	%al
	testb	%al, %al
	je	L314
	movl	-36(%ebp), %edx
	leal	-816(%ebp), %eax
	movl	%edx, (%esp)
	movl	%eax, %ecx
	call	__ZNSt7__cxx1112basic_stringIcSt11char_traitsIcESaIcEEixEj
	subl	$4, %esp
	movl	%eax, %ebx
	movl	-36(%ebp), %edx
	leal	-816(%ebp), %eax
	movl	%edx, (%esp)
	movl	%eax, %ecx
	call	__ZNSt7__cxx1112basic_stringIcSt11char_traitsIcESaIcEEixEj
	subl	$4, %esp
	movzbl	(%eax), %eax
	movsbl	%al, %eax
	movl	%eax, (%esp)
	call	_tolower
	movb	%al, (%ebx)
	addl	$1, -36(%ebp)
	jmp	L315
L314:
	movl	$0, -40(%ebp)
L321:
	leal	-876(%ebp), %eax
	movl	%eax, %ecx
	call	__ZNKSt6vectorINSt7__cxx1112basic_stringIcSt11char_traitsIcESaIcEEESaIS5_EE4sizeEv
	movl	%eax, %edx
	movl	-40(%ebp), %eax
	cmpl	%eax, %edx
	seta	%al
	testb	%al, %al
	je	L316
	movl	$0, -44(%ebp)
L320:
	leal	-876(%ebp), %eax
	movl	%eax, %ecx
	call	__ZNKSt6vectorINSt7__cxx1112basic_stringIcSt11char_traitsIcESaIcEEESaIS5_EE4sizeEv
	movl	%eax, %edx
	movl	-44(%ebp), %eax
	cmpl	%eax, %edx
	seta	%al
	testb	%al, %al
	je	L317
	movl	-44(%ebp), %edx
	leal	-876(%ebp), %eax
	movl	%edx, (%esp)
	movl	%eax, %ecx
	call	__ZNSt6vectorINSt7__cxx1112basic_stringIcSt11char_traitsIcESaIcEEESaIS5_EEixEj
	subl	$4, %esp
	movl	%eax, %ebx
	movl	-40(%ebp), %edx
	leal	-876(%ebp), %eax
	movl	%edx, (%esp)
	movl	%eax, %ecx
	call	__ZNSt6vectorINSt7__cxx1112basic_stringIcSt11char_traitsIcESaIcEEESaIS5_EEixEj
	subl	$4, %esp
	movl	%ebx, 4(%esp)
	movl	%eax, (%esp)
	call	__ZSteqIcEN9__gnu_cxx11__enable_ifIXsrSt9__is_charIT_E7__valueEbE6__typeERKNSt7__cxx1112basic_stringIS3_St11char_traitsIS3_ESaIS3_EEESE_
	testb	%al, %al
	je	L318
	leal	-276(%ebp), %eax
	leal	-816(%ebp), %edx
	movl	%edx, (%esp)
	movl	%eax, %ecx
	call	__ZNSt7__cxx1112basic_stringIcSt11char_traitsIcESaIcEEC1ERKS4_
LEHE70:
	subl	$4, %esp
	movl	-40(%ebp), %edx
	leal	-876(%ebp), %eax
	movl	%edx, (%esp)
	movl	%eax, %ecx
	call	__ZNSt6vectorINSt7__cxx1112basic_stringIcSt11char_traitsIcESaIcEEESaIS5_EEixEj
	subl	$4, %esp
	movl	%eax, %edx
	leal	-252(%ebp), %eax
	movl	%edx, (%esp)
	movl	%eax, %ecx
LEHB71:
	call	__ZNSt7__cxx1112basic_stringIcSt11char_traitsIcESaIcEEC1ERKS4_
LEHE71:
	subl	$4, %esp
	leal	-504(%ebp), %eax
	leal	-252(%ebp), %edx
	movl	%edx, (%esp)
	movl	%eax, %ecx
LEHB72:
	call	__ZN7hashLib11getHashNodeENSt7__cxx1112basic_stringIcSt11char_traitsIcESaIcEEE
	subl	$4, %esp
	movl	%eax, %edx
	movl	$0, 8(%esp)
	movl	$1, 4(%esp)
	leal	-276(%ebp), %eax
	movl	%eax, (%esp)
	movl	%edx, %ecx
	call	__ZN8hashNode6addSynENSt7__cxx1112basic_stringIcSt11char_traitsIcESaIcEEEii
LEHE72:
	subl	$12, %esp
	leal	-252(%ebp), %eax
	movl	%eax, %ecx
	call	__ZNSt7__cxx1112basic_stringIcSt11char_traitsIcESaIcEED1Ev
	leal	-276(%ebp), %eax
	movl	%eax, %ecx
	call	__ZNSt7__cxx1112basic_stringIcSt11char_traitsIcESaIcEED1Ev
	jmp	L319
L318:
	movl	-44(%ebp), %edx
	leal	-876(%ebp), %eax
	movl	%edx, (%esp)
	movl	%eax, %ecx
	call	__ZNSt6vectorINSt7__cxx1112basic_stringIcSt11char_traitsIcESaIcEEESaIS5_EEixEj
	subl	$4, %esp
	movl	%eax, %edx
	leal	-228(%ebp), %eax
	movl	%edx, (%esp)
	movl	%eax, %ecx
LEHB73:
	call	__ZNSt7__cxx1112basic_stringIcSt11char_traitsIcESaIcEEC1ERKS4_
LEHE73:
	subl	$4, %esp
	movl	-40(%ebp), %edx
	leal	-876(%ebp), %eax
	movl	%edx, (%esp)
	movl	%eax, %ecx
	call	__ZNSt6vectorINSt7__cxx1112basic_stringIcSt11char_traitsIcESaIcEEESaIS5_EEixEj
	subl	$4, %esp
	movl	%eax, %edx
	leal	-204(%ebp), %eax
	movl	%edx, (%esp)
	movl	%eax, %ecx
LEHB74:
	call	__ZNSt7__cxx1112basic_stringIcSt11char_traitsIcESaIcEEC1ERKS4_
LEHE74:
	subl	$4, %esp
	leal	-504(%ebp), %eax
	leal	-204(%ebp), %edx
	movl	%edx, (%esp)
	movl	%eax, %ecx
LEHB75:
	call	__ZN7hashLib11getHashNodeENSt7__cxx1112basic_stringIcSt11char_traitsIcESaIcEEE
	subl	$4, %esp
	movl	%eax, %edx
	movl	$0, 8(%esp)
	movl	$1, 4(%esp)
	leal	-228(%ebp), %eax
	movl	%eax, (%esp)
	movl	%edx, %ecx
	call	__ZN8hashNode6addSynENSt7__cxx1112basic_stringIcSt11char_traitsIcESaIcEEEii
LEHE75:
	subl	$12, %esp
	leal	-204(%ebp), %eax
	movl	%eax, %ecx
	call	__ZNSt7__cxx1112basic_stringIcSt11char_traitsIcESaIcEED1Ev
	leal	-228(%ebp), %eax
	movl	%eax, %ecx
	call	__ZNSt7__cxx1112basic_stringIcSt11char_traitsIcESaIcEED1Ev
L319:
	addl	$1, -44(%ebp)
	jmp	L320
L317:
	addl	$1, -40(%ebp)
	jmp	L321
L316:
	leal	-876(%ebp), %eax
	movl	%eax, %ecx
	call	__ZNSt6vectorINSt7__cxx1112basic_stringIcSt11char_traitsIcESaIcEEESaIS5_EED1Ev
	leal	-864(%ebp), %eax
	movl	%eax, %ecx
	call	__ZNSt7__cxx1112basic_stringIcSt11char_traitsIcESaIcEED1Ev
	leal	-840(%ebp), %eax
	movl	%eax, %ecx
	call	__ZNSt7__cxx1112basic_stringIcSt11char_traitsIcESaIcEED1Ev
	leal	-1272(%ebp), %eax
	movl	%eax, %ecx
	call	__ZNSt7__cxx1118basic_stringstreamIcSt11char_traitsIcESaIcEED1Ev
	leal	-816(%ebp), %eax
	movl	%eax, %ecx
	call	__ZNSt7__cxx1112basic_stringIcSt11char_traitsIcESaIcEED1Ev
	jmp	L322
L496:
	nop
L297:
	leal	-768(%ebp), %eax
	movl	%eax, %ecx
LEHB76:
	call	__ZNSt14basic_ifstreamIcSt11char_traitsIcEE5closeEv
	movl	$LC34, 4(%esp)
	movl	$__ZSt4cout, (%esp)
	call	__ZStlsISt11char_traitsIcEERSt13basic_ostreamIcT_ES5_PKc
	movl	$__ZSt4endlIcSt11char_traitsIcEERSt13basic_ostreamIT_T0_ES6_, (%esp)
	movl	%eax, %ecx
	call	__ZNSolsEPFRSoS_E
LEHE76:
	subl	$4, %esp
L412:
	leal	-900(%ebp), %eax
	movl	%eax, %ecx
	call	__ZNSt7__cxx1112basic_stringIcSt11char_traitsIcESaIcEEC1Ev
	movl	$LC35, 4(%esp)
	movl	$__ZSt4cout, (%esp)
LEHB77:
	call	__ZStlsISt11char_traitsIcEERSt13basic_ostreamIcT_ES5_PKc
	movl	$__ZSt4endlIcSt11char_traitsIcEERSt13basic_ostreamIT_T0_ES6_, (%esp)
	movl	%eax, %ecx
	call	__ZNSolsEPFRSoS_E
	subl	$4, %esp
	leal	-900(%ebp), %eax
	movl	%eax, 4(%esp)
	movl	$__ZSt3cin, (%esp)
	call	__ZSt7getlineIcSt11char_traitsIcESaIcEERSt13basic_istreamIT_T0_ES7_RNSt7__cxx1112basic_stringIS4_S5_T1_EE
	leal	-900(%ebp), %eax
	movl	$0, (%esp)
	movl	%eax, %ecx
	call	__ZNSt7__cxx1112basic_stringIcSt11char_traitsIcESaIcEEixEj
	subl	$4, %esp
	movzbl	(%eax), %eax
	movb	%al, -45(%ebp)
	movl	$0, -52(%ebp)
L325:
	leal	-900(%ebp), %eax
	movl	%eax, %ecx
	call	__ZNKSt7__cxx1112basic_stringIcSt11char_traitsIcESaIcEE6lengthEv
	movl	%eax, %edx
	movl	-52(%ebp), %eax
	cmpl	%eax, %edx
	seta	%al
	testb	%al, %al
	je	L323
	movl	-52(%ebp), %edx
	leal	-900(%ebp), %eax
	movl	%edx, (%esp)
	movl	%eax, %ecx
	call	__ZNSt7__cxx1112basic_stringIcSt11char_traitsIcESaIcEEixEj
	subl	$4, %esp
	movzbl	(%eax), %eax
	cmpb	$32, %al
	setne	%al
	testb	%al, %al
	je	L324
	movl	-52(%ebp), %edx
	leal	-900(%ebp), %eax
	movl	%edx, (%esp)
	movl	%eax, %ecx
	call	__ZNSt7__cxx1112basic_stringIcSt11char_traitsIcESaIcEEixEj
LEHE77:
	subl	$4, %esp
	movzbl	(%eax), %eax
	movb	%al, -45(%ebp)
	jmp	L323
L324:
	addl	$1, -52(%ebp)
	jmp	L325
L323:
	leal	-924(%ebp), %eax
	movl	%eax, %ecx
	call	__ZNSt7__cxx1112basic_stringIcSt11char_traitsIcESaIcEEC1Ev
	movl	$8, 4(%esp)
	movl	$16, (%esp)
	call	__ZStorSt13_Ios_OpenmodeS_
	movl	%eax, %edx
	leal	-1480(%ebp), %eax
	movl	%edx, (%esp)
	movl	%eax, %ecx
LEHB78:
	call	__ZNSt7__cxx1118basic_stringstreamIcSt11char_traitsIcESaIcEEC1ESt13_Ios_Openmode
LEHE78:
	subl	$4, %esp
	cmpb	$73, -45(%ebp)
	je	L326
	cmpb	$105, -45(%ebp)
	jne	L327
L326:
	movl	$__ZSt4endlIcSt11char_traitsIcEERSt13basic_ostreamIT_T0_ES6_, (%esp)
	movl	$__ZSt4cout, %ecx
LEHB79:
	call	__ZNSolsEPFRSoS_E
	subl	$4, %esp
	movl	$LC36, 4(%esp)
	movl	$__ZSt4cout, (%esp)
	call	__ZStlsISt11char_traitsIcEERSt13basic_ostreamIcT_ES5_PKc
	movl	$__ZSt4endlIcSt11char_traitsIcEERSt13basic_ostreamIT_T0_ES6_, (%esp)
	movl	%eax, %ecx
	call	__ZNSolsEPFRSoS_E
	subl	$4, %esp
	leal	-924(%ebp), %eax
	movl	%eax, 4(%esp)
	movl	$__ZSt3cin, (%esp)
	call	__ZSt7getlineIcSt11char_traitsIcESaIcEERSt13basic_istreamIT_T0_ES7_RNSt7__cxx1112basic_stringIS4_S5_T1_EE
	leal	-924(%ebp), %eax
	movl	%eax, 4(%esp)
	leal	-1480(%ebp), %eax
	addl	$8, %eax
	movl	%eax, (%esp)
	call	__ZStlsIcSt11char_traitsIcESaIcEERSt13basic_ostreamIT_T0_ES7_RKNSt7__cxx1112basic_stringIS4_S5_T1_EE
	movl	$__ZSt4endlIcSt11char_traitsIcEERSt13basic_ostreamIT_T0_ES6_, (%esp)
	movl	$__ZSt4cout, %ecx
	call	__ZNSolsEPFRSoS_E
	subl	$4, %esp
	leal	-180(%ebp), %eax
	leal	-516(%ebp), %edx
	movl	%edx, (%esp)
	movl	%eax, %ecx
	call	__ZNSt6vectorINSt7__cxx1112basic_stringIcSt11char_traitsIcESaIcEEESaIS5_EEC1ERKS7_
LEHE79:
	subl	$4, %esp
	leal	-180(%ebp), %eax
	movl	%eax, 8(%esp)
	leal	-504(%ebp), %eax
	movl	%eax, 4(%esp)
	leal	-1480(%ebp), %eax
	movl	%eax, (%esp)
LEHB80:
	call	__Z13directThesaurPNSt7__cxx1118basic_stringstreamIcSt11char_traitsIcESaIcEEEP7hashLibSt6vectorINS_12basic_stringIcS2_S3_EESaISA_EE
LEHE80:
	leal	-180(%ebp), %eax
	movl	%eax, %ecx
	call	__ZNSt6vectorINSt7__cxx1112basic_stringIcSt11char_traitsIcESaIcEEESaIS5_EED1Ev
	jmp	L328
L327:
	cmpb	$71, -45(%ebp)
	je	L329
	cmpb	$103, -45(%ebp)
	jne	L330
L329:
	movl	$__ZSt4endlIcSt11char_traitsIcEERSt13basic_ostreamIT_T0_ES6_, (%esp)
	movl	$__ZSt4cout, %ecx
LEHB81:
	call	__ZNSolsEPFRSoS_E
	subl	$4, %esp
	movl	$LC37, 4(%esp)
	movl	$__ZSt4cout, (%esp)
	call	__ZStlsISt11char_traitsIcEERSt13basic_ostreamIcT_ES5_PKc
	movl	$__ZSt4endlIcSt11char_traitsIcEERSt13basic_ostreamIT_T0_ES6_, (%esp)
	movl	%eax, %ecx
	call	__ZNSolsEPFRSoS_E
	subl	$4, %esp
	leal	-924(%ebp), %eax
	movl	%eax, 4(%esp)
	movl	$__ZSt3cin, (%esp)
	call	__ZSt7getlineIcSt11char_traitsIcESaIcEERSt13basic_istreamIT_T0_ES7_RNSt7__cxx1112basic_stringIS4_S5_T1_EE
	leal	-924(%ebp), %eax
	movl	%eax, 4(%esp)
	leal	-1480(%ebp), %eax
	addl	$8, %eax
	movl	%eax, (%esp)
	call	__ZStlsIcSt11char_traitsIcESaIcEERSt13basic_ostreamIT_T0_ES7_RKNSt7__cxx1112basic_stringIS4_S5_T1_EE
	movl	$__ZSt4endlIcSt11char_traitsIcEERSt13basic_ostreamIT_T0_ES6_, (%esp)
	movl	$__ZSt4cout, %ecx
	call	__ZNSolsEPFRSoS_E
LEHE81:
	subl	$4, %esp
	leal	-1576(%ebp), %eax
	movl	$2, %ebx
	movl	%eax, %esi
L332:
	testl	%ebx, %ebx
	js	L331
	movl	%esi, %ecx
	call	__ZN8heapNodeC1Ev
	addl	$32, %esi
	subl	$1, %ebx
	jmp	L332
L331:
	movl	$8, 4(%esp)
	movl	$16, (%esp)
	call	__ZStorSt13_Ios_OpenmodeS_
	movl	%eax, %edx
	leal	-1272(%ebp), %eax
	movl	%edx, (%esp)
	movl	%eax, %ecx
LEHB82:
	call	__ZNSt7__cxx1118basic_stringstreamIcSt11char_traitsIcESaIcEEC1ESt13_Ios_Openmode
LEHE82:
	subl	$4, %esp
	leal	-924(%ebp), %eax
	movl	%eax, 4(%esp)
	leal	-1272(%ebp), %eax
	addl	$8, %eax
	movl	%eax, (%esp)
LEHB83:
	call	__ZStlsIcSt11char_traitsIcESaIcEERSt13basic_ostreamIT_T0_ES7_RKNSt7__cxx1112basic_stringIS4_S5_T1_EE
	movb	$0, -937(%ebp)
	leal	-168(%ebp), %eax
	leal	-516(%ebp), %edx
	movl	%edx, (%esp)
	movl	%eax, %ecx
	call	__ZNSt6vectorINSt7__cxx1112basic_stringIcSt11char_traitsIcESaIcEEESaIS5_EEC1ERKS7_
LEHE83:
	subl	$4, %esp
	leal	-937(%ebp), %eax
	movl	%eax, 20(%esp)
	leal	-168(%ebp), %eax
	movl	%eax, 16(%esp)
	leal	-936(%ebp), %eax
	movl	%eax, 12(%esp)
	leal	-1576(%ebp), %eax
	movl	%eax, 8(%esp)
	leal	-504(%ebp), %eax
	movl	%eax, 4(%esp)
	leal	-1480(%ebp), %eax
	movl	%eax, (%esp)
LEHB84:
	call	__Z13indireThesaurPNSt7__cxx1118basic_stringstreamIcSt11char_traitsIcESaIcEEEP7hashLibP8heapNodePS9_St6vectorINS_12basic_stringIcS2_S3_EESaISD_EEPb
LEHE84:
	leal	-168(%ebp), %eax
	movl	%eax, %ecx
	call	__ZNSt6vectorINSt7__cxx1112basic_stringIcSt11char_traitsIcESaIcEEESaIS5_EED1Ev
L339:
	movzbl	-937(%ebp), %eax
	testb	%al, %al
	je	L333
	movl	$LC38, 4(%esp)
	movl	$__ZSt4cout, (%esp)
LEHB85:
	call	__ZStlsISt11char_traitsIcEERSt13basic_ostreamIcT_ES5_PKc
	movl	$__ZSt4endlIcSt11char_traitsIcEERSt13basic_ostreamIT_T0_ES6_, (%esp)
	movl	%eax, %ecx
	call	__ZNSolsEPFRSoS_E
	subl	$4, %esp
	leal	-938(%ebp), %eax
	movl	%eax, 4(%esp)
	movl	$__ZSt3cin, (%esp)
	call	__ZStrsIcSt11char_traitsIcEERSt13basic_istreamIT_T0_ES6_RS3_
	leal	-924(%ebp), %eax
	movl	%eax, 4(%esp)
	movl	$__ZSt3cin, (%esp)
	call	__ZSt7getlineIcSt11char_traitsIcESaIcEERSt13basic_istreamIT_T0_ES7_RNSt7__cxx1112basic_stringIS4_S5_T1_EE
	movzbl	-938(%ebp), %eax
	cmpb	$121, %al
	je	L334
	movzbl	-938(%ebp), %eax
	cmpb	$89, %al
	jne	L335
L334:
	movl	$__ZSt4endlIcSt11char_traitsIcEERSt13basic_ostreamIT_T0_ES6_, (%esp)
	movl	$__ZSt4cout, %ecx
	call	__ZNSolsEPFRSoS_E
	subl	$4, %esp
	leal	-156(%ebp), %eax
	leal	-516(%ebp), %edx
	movl	%edx, (%esp)
	movl	%eax, %ecx
	call	__ZNSt6vectorINSt7__cxx1112basic_stringIcSt11char_traitsIcESaIcEEESaIS5_EEC1ERKS7_
LEHE85:
	subl	$4, %esp
	leal	-156(%ebp), %eax
	movl	%eax, 8(%esp)
	leal	-504(%ebp), %eax
	movl	%eax, 4(%esp)
	leal	-1272(%ebp), %eax
	movl	%eax, (%esp)
LEHB86:
	call	__Z13directThesaurPNSt7__cxx1118basic_stringstreamIcSt11char_traitsIcESaIcEEEP7hashLibSt6vectorINS_12basic_stringIcS2_S3_EESaISA_EE
LEHE86:
	leal	-156(%ebp), %eax
	movl	%eax, %ecx
	call	__ZNSt6vectorINSt7__cxx1112basic_stringIcSt11char_traitsIcESaIcEEESaIS5_EED1Ev
	jmp	L333
L335:
	movzbl	-938(%ebp), %eax
	cmpb	$110, %al
	je	L337
	movzbl	-938(%ebp), %eax
	cmpb	$78, %al
	jne	L339
L337:
	movl	$__ZSt4endlIcSt11char_traitsIcEERSt13basic_ostreamIT_T0_ES6_, (%esp)
	movl	$__ZSt4cout, %ecx
LEHB87:
	call	__ZNSolsEPFRSoS_E
LEHE87:
	subl	$4, %esp
L333:
	leal	-1272(%ebp), %eax
	movl	%eax, %ecx
	call	__ZNSt7__cxx1118basic_stringstreamIcSt11char_traitsIcESaIcEED1Ev
	leal	-1576(%ebp), %ebx
	addl	$96, %ebx
L341:
	leal	-1576(%ebp), %eax
	cmpl	%eax, %ebx
	je	L340
	subl	$32, %ebx
	movl	%ebx, %ecx
	call	__ZN8heapNodeD1Ev
	jmp	L341
L340:
	jmp	L328
L330:
	cmpb	$76, -45(%ebp)
	je	L342
	cmpb	$108, -45(%ebp)
	jne	L343
L342:
	movl	$__ZSt4endlIcSt11char_traitsIcEERSt13basic_ostreamIT_T0_ES6_, (%esp)
	movl	$__ZSt4cout, %ecx
LEHB88:
	call	__ZNSolsEPFRSoS_E
	subl	$4, %esp
	movl	$LC39, 4(%esp)
	movl	$__ZSt4cout, (%esp)
	call	__ZStlsISt11char_traitsIcEERSt13basic_ostreamIcT_ES5_PKc
	movl	$__ZSt4endlIcSt11char_traitsIcEERSt13basic_ostreamIT_T0_ES6_, (%esp)
	movl	%eax, %ecx
	call	__ZNSolsEPFRSoS_E
LEHE88:
	subl	$4, %esp
	leal	-964(%ebp), %eax
	movl	%eax, %ecx
	call	__ZNSt7__cxx1112basic_stringIcSt11char_traitsIcESaIcEEC1Ev
	leal	-992(%ebp), %eax
	movl	%eax, %ecx
	call	__ZNSt7__cxx1112basic_stringIcSt11char_traitsIcESaIcEEC1Ev
L398:
	leal	-965(%ebp), %eax
	movl	%eax, 4(%esp)
	movl	$__ZSt3cin, (%esp)
LEHB89:
	call	__ZStrsIcSt11char_traitsIcEERSt13basic_istreamIT_T0_ES6_RS3_
	movzbl	-965(%ebp), %eax
	movsbl	%al, %edx
	leal	-964(%ebp), %eax
	movl	%edx, (%esp)
	movl	%eax, %ecx
	call	__ZNSt7__cxx1112basic_stringIcSt11char_traitsIcESaIcEEaSEc
	subl	$4, %esp
	leal	-992(%ebp), %eax
	movl	%eax, 4(%esp)
	movl	$__ZSt3cin, (%esp)
	call	__ZSt7getlineIcSt11char_traitsIcESaIcEERSt13basic_istreamIT_T0_ES7_RNSt7__cxx1112basic_stringIS4_S5_T1_EE
	movl	$__ZSt4endlIcSt11char_traitsIcEERSt13basic_ostreamIT_T0_ES6_, (%esp)
	movl	$__ZSt4cout, %ecx
	call	__ZNSolsEPFRSoS_E
	subl	$4, %esp
	movl	$LC40, 4(%esp)
	leal	-964(%ebp), %eax
	movl	%eax, (%esp)
	call	__ZSteqIcSt11char_traitsIcESaIcEEbRKNSt7__cxx1112basic_stringIT_T0_T1_EEPKS5_
	testb	%al, %al
	jne	L344
	movl	$LC41, 4(%esp)
	leal	-964(%ebp), %eax
	movl	%eax, (%esp)
	call	__ZSteqIcSt11char_traitsIcESaIcEEbRKNSt7__cxx1112basic_stringIT_T0_T1_EEPKS5_
	testb	%al, %al
	je	L345
L344:
	movl	$1, %eax
	jmp	L346
L345:
	movl	$0, %eax
L346:
	testb	%al, %al
	je	L347
	leal	-504(%ebp), %eax
	movl	%eax, %ecx
	call	__ZN7hashLib14printHashTableEv
	movl	$__ZSt4endlIcSt11char_traitsIcEERSt13basic_ostreamIT_T0_ES6_, (%esp)
	movl	$__ZSt4cout, %ecx
	call	__ZNSolsEPFRSoS_E
	subl	$4, %esp
	movl	$-11, (%esp)
	call	_GetStdHandle@4
	subl	$4, %esp
	movl	%eax, -96(%ebp)
	movl	$10, 4(%esp)
	movl	-96(%ebp), %eax
	movl	%eax, (%esp)
	call	_SetConsoleTextAttribute@8
	subl	$8, %esp
	movl	$LC42, 4(%esp)
	movl	$__ZSt4cout, (%esp)
	call	__ZStlsISt11char_traitsIcEERSt13basic_ostreamIcT_ES5_PKc
	movl	$__ZSt4endlIcSt11char_traitsIcEERSt13basic_ostreamIT_T0_ES6_, (%esp)
	movl	%eax, %ecx
	call	__ZNSolsEPFRSoS_E
	subl	$4, %esp
	movl	$15, 4(%esp)
	movl	-96(%ebp), %eax
	movl	%eax, (%esp)
	call	_SetConsoleTextAttribute@8
	subl	$8, %esp
	movl	$__ZSt4endlIcSt11char_traitsIcEERSt13basic_ostreamIT_T0_ES6_, (%esp)
	movl	$__ZSt4cout, %ecx
	call	__ZNSolsEPFRSoS_E
	subl	$4, %esp
	jmp	L348
L347:
	movl	$LC43, 4(%esp)
	leal	-964(%ebp), %eax
	movl	%eax, (%esp)
	call	__ZSteqIcSt11char_traitsIcESaIcEEbRKNSt7__cxx1112basic_stringIT_T0_T1_EEPKS5_
	testb	%al, %al
	jne	L349
	movl	$LC44, 4(%esp)
	leal	-964(%ebp), %eax
	movl	%eax, (%esp)
	call	__ZSteqIcSt11char_traitsIcESaIcEEbRKNSt7__cxx1112basic_stringIT_T0_T1_EEPKS5_
	testb	%al, %al
	je	L350
L349:
	movl	$1, %eax
	jmp	L351
L350:
	movl	$0, %eax
L351:
	testb	%al, %al
	je	L398
	movl	$LC45, 4(%esp)
	movl	$__ZSt4cout, (%esp)
	call	__ZStlsISt11char_traitsIcEERSt13basic_ostreamIcT_ES5_PKc
	movl	$__ZSt4endlIcSt11char_traitsIcEERSt13basic_ostreamIT_T0_ES6_, (%esp)
	movl	%eax, %ecx
	call	__ZNSolsEPFRSoS_E
LEHE89:
	subl	$4, %esp
	leal	-1016(%ebp), %eax
	movl	%eax, %ecx
	call	__ZNSt7__cxx1112basic_stringIcSt11char_traitsIcESaIcEEC1Ev
L355:
	leal	-1016(%ebp), %eax
	movl	%eax, 4(%esp)
	movl	$__ZSt3cin, (%esp)
LEHB90:
	call	__ZSt7getlineIcSt11char_traitsIcESaIcEERSt13basic_istreamIT_T0_ES7_RNSt7__cxx1112basic_stringIS4_S5_T1_EE
	movl	$LC1, 4(%esp)
	leal	-1016(%ebp), %eax
	movl	%eax, (%esp)
	call	__ZStneIcSt11char_traitsIcESaIcEEbRKNSt7__cxx1112basic_stringIT_T0_T1_EEPKS5_
	testb	%al, %al
	jne	L498
	leal	-1016(%ebp), %eax
	movl	$LC1, (%esp)
	movl	%eax, %ecx
	call	__ZNSt7__cxx1112basic_stringIcSt11char_traitsIcESaIcEEaSEPKc
	subl	$4, %esp
	jmp	L355
L498:
	nop
	leal	-1016(%ebp), %eax
	movl	%eax, %ecx
	call	__ZNKSt7__cxx1112basic_stringIcSt11char_traitsIcESaIcEE6lengthEv
	leal	-1(%eax), %edx
	leal	-1016(%ebp), %eax
	movl	%edx, (%esp)
	movl	%eax, %ecx
	call	__ZNSt7__cxx1112basic_stringIcSt11char_traitsIcESaIcEEixEj
	subl	$4, %esp
	movzbl	(%eax), %eax
	cmpb	$32, %al
	sete	%al
	testb	%al, %al
	je	L356
	leal	-1016(%ebp), %eax
	movl	%eax, %ecx
	call	__ZNKSt7__cxx1112basic_stringIcSt11char_traitsIcESaIcEE6lengthEv
	leal	-1(%eax), %edx
	leal	-144(%ebp), %eax
	movl	%edx, 8(%esp)
	movl	$0, 4(%esp)
	leal	-1016(%ebp), %edx
	movl	%edx, (%esp)
	movl	%eax, %ecx
	call	__ZNKSt7__cxx1112basic_stringIcSt11char_traitsIcESaIcEE6substrEjj
	subl	$12, %esp
	leal	-964(%ebp), %eax
	leal	-144(%ebp), %edx
	movl	%edx, (%esp)
	movl	%eax, %ecx
	call	__ZNSt7__cxx1112basic_stringIcSt11char_traitsIcESaIcEEaSEOS4_
	subl	$4, %esp
	leal	-144(%ebp), %eax
	movl	%eax, %ecx
	call	__ZNSt7__cxx1112basic_stringIcSt11char_traitsIcESaIcEED1Ev
	jmp	L357
L356:
	leal	-964(%ebp), %eax
	leal	-1016(%ebp), %edx
	movl	%edx, (%esp)
	movl	%eax, %ecx
	call	__ZNSt7__cxx1112basic_stringIcSt11char_traitsIcESaIcEEaSERKS4_
	subl	$4, %esp
L357:
	movl	$__ZSt4endlIcSt11char_traitsIcEERSt13basic_ostreamIT_T0_ES6_, (%esp)
	movl	$__ZSt4cout, %ecx
	call	__ZNSolsEPFRSoS_E
	subl	$4, %esp
	movl	$0, -56(%ebp)
L359:
	leal	-964(%ebp), %eax
	movl	%eax, %ecx
	call	__ZNKSt7__cxx1112basic_stringIcSt11char_traitsIcESaIcEE6lengthEv
	movl	%eax, %edx
	movl	-56(%ebp), %eax
	cmpl	%eax, %edx
	seta	%al
	testb	%al, %al
	je	L358
	movl	-56(%ebp), %edx
	leal	-964(%ebp), %eax
	movl	%edx, (%esp)
	movl	%eax, %ecx
	call	__ZNSt7__cxx1112basic_stringIcSt11char_traitsIcESaIcEEixEj
	subl	$4, %esp
	movl	%eax, %ebx
	movl	-56(%ebp), %edx
	leal	-964(%ebp), %eax
	movl	%edx, (%esp)
	movl	%eax, %ecx
	call	__ZNSt7__cxx1112basic_stringIcSt11char_traitsIcESaIcEEixEj
	subl	$4, %esp
	movzbl	(%eax), %eax
	movsbl	%al, %eax
	movl	%eax, (%esp)
	call	_tolower
	movb	%al, (%ebx)
	addl	$1, -56(%ebp)
	jmp	L359
L358:
	leal	-120(%ebp), %eax
	leal	-964(%ebp), %edx
	movl	%edx, (%esp)
	movl	%eax, %ecx
	call	__ZNSt7__cxx1112basic_stringIcSt11char_traitsIcESaIcEEC1ERKS4_
LEHE90:
	subl	$4, %esp
	leal	-504(%ebp), %eax
	leal	-120(%ebp), %edx
	movl	%edx, (%esp)
	movl	%eax, %ecx
LEHB91:
	call	__ZN7hashLib11getHashNodeENSt7__cxx1112basic_stringIcSt11char_traitsIcESaIcEEE
LEHE91:
	subl	$4, %esp
	movl	%eax, -92(%ebp)
	leal	-120(%ebp), %eax
	movl	%eax, %ecx
	call	__ZNSt7__cxx1112basic_stringIcSt11char_traitsIcESaIcEED1Ev
	cmpl	$0, -92(%ebp)
	jne	L360
	movl	$LC46, 4(%esp)
	movl	$__ZSt4cout, (%esp)
LEHB92:
	call	__ZStlsISt11char_traitsIcEERSt13basic_ostreamIcT_ES5_PKc
	movl	$__ZSt4endlIcSt11char_traitsIcEERSt13basic_ostreamIT_T0_ES6_, (%esp)
	movl	%eax, %ecx
	call	__ZNSolsEPFRSoS_E
	subl	$4, %esp
	jmp	L361
L360:
	leal	-1040(%ebp), %eax
	leal	-964(%ebp), %edx
	movl	%edx, (%esp)
	movl	%eax, %ecx
	call	__ZNSt7__cxx1112basic_stringIcSt11char_traitsIcESaIcEEC1ERKS4_
LEHE92:
	subl	$4, %esp
	leal	-964(%ebp), %eax
	movl	%eax, 4(%esp)
	movl	$__ZSt4cout, (%esp)
LEHB93:
	call	__ZStlsIcSt11char_traitsIcESaIcEERSt13basic_ostreamIT_T0_ES7_RKNSt7__cxx1112basic_stringIS4_S5_T1_EE
	movl	$LC14, 4(%esp)
	movl	%eax, (%esp)
	call	__ZStlsISt11char_traitsIcEERSt13basic_ostreamIcT_ES5_PKc
	movl	$__ZSt4endlIcSt11char_traitsIcEERSt13basic_ostreamIT_T0_ES6_, (%esp)
	movl	%eax, %ecx
	call	__ZNSolsEPFRSoS_E
	subl	$4, %esp
	movl	$1, -60(%ebp)
L363:
	movl	-92(%ebp), %eax
	addl	$28, %eax
	movl	%eax, %ecx
	call	__ZNKSt6vectorI8heapNodeSaIS0_EE4sizeEv
	leal	-1(%eax), %edx
	movl	-60(%ebp), %eax
	cmpl	%eax, %edx
	seta	%al
	testb	%al, %al
	je	L362
	movl	-60(%ebp), %eax
	movl	-92(%ebp), %edx
	addl	$28, %edx
	movl	%eax, (%esp)
	movl	%edx, %ecx
	call	__ZNSt6vectorI8heapNodeSaIS0_EEixEj
	subl	$4, %esp
	movl	%eax, 4(%esp)
	movl	$__ZSt4cout, (%esp)
	call	__ZStlsIcSt11char_traitsIcESaIcEERSt13basic_ostreamIT_T0_ES7_RKNSt7__cxx1112basic_stringIS4_S5_T1_EE
	movl	$LC47, 4(%esp)
	movl	%eax, (%esp)
	call	__ZStlsISt11char_traitsIcEERSt13basic_ostreamIcT_ES5_PKc
	movl	$__ZSt5flushIcSt11char_traitsIcEERSt13basic_ostreamIT_T0_ES6_, (%esp)
	movl	%eax, %ecx
	call	__ZNSolsEPFRSoS_E
	subl	$4, %esp
	addl	$1, -60(%ebp)
	jmp	L363
L362:
	movl	-92(%ebp), %eax
	addl	$28, %eax
	movl	%eax, %ecx
	call	__ZNKSt6vectorI8heapNodeSaIS0_EE4sizeEv
	leal	-1(%eax), %edx
	movl	-92(%ebp), %eax
	addl	$28, %eax
	movl	%edx, (%esp)
	movl	%eax, %ecx
	call	__ZNSt6vectorI8heapNodeSaIS0_EEixEj
	subl	$4, %esp
	movl	%eax, 4(%esp)
	movl	$__ZSt4cout, (%esp)
	call	__ZStlsIcSt11char_traitsIcESaIcEERSt13basic_ostreamIT_T0_ES7_RKNSt7__cxx1112basic_stringIS4_S5_T1_EE
	movl	$__ZSt5flushIcSt11char_traitsIcEERSt13basic_ostreamIT_T0_ES6_, (%esp)
	movl	%eax, %ecx
	call	__ZNSolsEPFRSoS_E
	subl	$4, %esp
	movl	$__ZSt4endlIcSt11char_traitsIcEERSt13basic_ostreamIT_T0_ES6_, (%esp)
	movl	$__ZSt4cout, %ecx
	call	__ZNSolsEPFRSoS_E
	subl	$4, %esp
	movl	$__ZSt4endlIcSt11char_traitsIcEERSt13basic_ostreamIT_T0_ES6_, (%esp)
	movl	$__ZSt4cout, %ecx
	call	__ZNSolsEPFRSoS_E
	subl	$4, %esp
	movl	$LC48, 4(%esp)
	movl	$__ZSt4cout, (%esp)
	call	__ZStlsISt11char_traitsIcEERSt13basic_ostreamIcT_ES5_PKc
	movl	$__ZSt4endlIcSt11char_traitsIcEERSt13basic_ostreamIT_T0_ES6_, (%esp)
	movl	%eax, %ecx
	call	__ZNSolsEPFRSoS_E
	subl	$4, %esp
	movl	$__ZSt4endlIcSt11char_traitsIcEERSt13basic_ostreamIT_T0_ES6_, (%esp)
	movl	$__ZSt4cout, %ecx
	call	__ZNSolsEPFRSoS_E
	subl	$4, %esp
	movl	$LC49, 4(%esp)
	movl	$__ZSt4cout, (%esp)
	call	__ZStlsISt11char_traitsIcEERSt13basic_ostreamIcT_ES5_PKc
	movl	$__ZSt4endlIcSt11char_traitsIcEERSt13basic_ostreamIT_T0_ES6_, (%esp)
	movl	%eax, %ecx
	call	__ZNSolsEPFRSoS_E
LEHE93:
	subl	$4, %esp
L397:
	leal	-1064(%ebp), %eax
	movl	%eax, %ecx
	call	__ZNSt7__cxx1112basic_stringIcSt11char_traitsIcESaIcEEC1Ev
	leal	-964(%ebp), %eax
	movl	%eax, 4(%esp)
	movl	$__ZSt3cin, (%esp)
LEHB94:
	call	__ZStrsIcSt11char_traitsIcESaIcEERSt13basic_istreamIT_T0_ES7_RNSt7__cxx1112basic_stringIS4_S5_T1_EE
	leal	-1064(%ebp), %eax
	movl	%eax, 4(%esp)
	movl	$__ZSt3cin, (%esp)
	call	__ZSt7getlineIcSt11char_traitsIcESaIcEERSt13basic_istreamIT_T0_ES7_RNSt7__cxx1112basic_stringIS4_S5_T1_EE
	movl	$LC50, 4(%esp)
	leal	-964(%ebp), %eax
	movl	%eax, (%esp)
	call	__ZSteqIcSt11char_traitsIcESaIcEEbRKNSt7__cxx1112basic_stringIT_T0_T1_EEPKS5_
	testb	%al, %al
	jne	L364
	movl	$LC18, 4(%esp)
	leal	-964(%ebp), %eax
	movl	%eax, (%esp)
	call	__ZSteqIcSt11char_traitsIcESaIcEEbRKNSt7__cxx1112basic_stringIT_T0_T1_EEPKS5_
	testb	%al, %al
	jne	L364
	movl	$LC19, 4(%esp)
	leal	-964(%ebp), %eax
	movl	%eax, (%esp)
	call	__ZSteqIcSt11char_traitsIcESaIcEEbRKNSt7__cxx1112basic_stringIT_T0_T1_EEPKS5_
	testb	%al, %al
	jne	L364
	movl	$LC51, 4(%esp)
	leal	-964(%ebp), %eax
	movl	%eax, (%esp)
	call	__ZSteqIcSt11char_traitsIcESaIcEEbRKNSt7__cxx1112basic_stringIT_T0_T1_EEPKS5_
	testb	%al, %al
	jne	L364
	movl	$LC52, 4(%esp)
	leal	-964(%ebp), %eax
	movl	%eax, (%esp)
	call	__ZSteqIcSt11char_traitsIcESaIcEEbRKNSt7__cxx1112basic_stringIT_T0_T1_EEPKS5_
	testb	%al, %al
	jne	L364
	movl	$LC53, 4(%esp)
	leal	-964(%ebp), %eax
	movl	%eax, (%esp)
	call	__ZSteqIcSt11char_traitsIcESaIcEEbRKNSt7__cxx1112basic_stringIT_T0_T1_EEPKS5_
	testb	%al, %al
	jne	L364
	movl	$LC54, 4(%esp)
	leal	-964(%ebp), %eax
	movl	%eax, (%esp)
	call	__ZSteqIcSt11char_traitsIcESaIcEEbRKNSt7__cxx1112basic_stringIT_T0_T1_EEPKS5_
	testb	%al, %al
	jne	L364
	movl	$LC55, 4(%esp)
	leal	-964(%ebp), %eax
	movl	%eax, (%esp)
	call	__ZSteqIcSt11char_traitsIcESaIcEEbRKNSt7__cxx1112basic_stringIT_T0_T1_EEPKS5_
	testb	%al, %al
	jne	L364
	movl	$LC56, 4(%esp)
	leal	-964(%ebp), %eax
	movl	%eax, (%esp)
	call	__ZSteqIcSt11char_traitsIcESaIcEEbRKNSt7__cxx1112basic_stringIT_T0_T1_EEPKS5_
	testb	%al, %al
	jne	L364
	movl	$LC57, 4(%esp)
	leal	-964(%ebp), %eax
	movl	%eax, (%esp)
	call	__ZSteqIcSt11char_traitsIcESaIcEEbRKNSt7__cxx1112basic_stringIT_T0_T1_EEPKS5_
	testb	%al, %al
	jne	L364
	movl	$LC58, 4(%esp)
	leal	-964(%ebp), %eax
	movl	%eax, (%esp)
	call	__ZSteqIcSt11char_traitsIcESaIcEEbRKNSt7__cxx1112basic_stringIT_T0_T1_EEPKS5_
	testb	%al, %al
	jne	L364
	movl	$LC59, 4(%esp)
	leal	-964(%ebp), %eax
	movl	%eax, (%esp)
	call	__ZSteqIcSt11char_traitsIcESaIcEEbRKNSt7__cxx1112basic_stringIT_T0_T1_EEPKS5_
	testb	%al, %al
	jne	L364
	movl	$LC60, 4(%esp)
	leal	-964(%ebp), %eax
	movl	%eax, (%esp)
	call	__ZSteqIcSt11char_traitsIcESaIcEEbRKNSt7__cxx1112basic_stringIT_T0_T1_EEPKS5_
	testb	%al, %al
	je	L365
L364:
	movl	$1, %eax
	jmp	L366
L365:
	movl	$0, %eax
L366:
	testb	%al, %al
	je	L367
	movl	$__ZSt4endlIcSt11char_traitsIcEERSt13basic_ostreamIT_T0_ES6_, (%esp)
	movl	$__ZSt4cout, %ecx
	call	__ZNSolsEPFRSoS_E
	subl	$4, %esp
	movl	$LC61, 4(%esp)
	movl	$__ZSt4cout, (%esp)
	call	__ZStlsISt11char_traitsIcEERSt13basic_ostreamIcT_ES5_PKc
	movl	$__ZSt4endlIcSt11char_traitsIcEERSt13basic_ostreamIT_T0_ES6_, (%esp)
	movl	%eax, %ecx
	call	__ZNSolsEPFRSoS_E
	subl	$4, %esp
	leal	-964(%ebp), %eax
	movl	%eax, 4(%esp)
	movl	$__ZSt3cin, (%esp)
	call	__ZStrsIcSt11char_traitsIcESaIcEERSt13basic_istreamIT_T0_ES7_RNSt7__cxx1112basic_stringIS4_S5_T1_EE
	movl	$__ZSt4endlIcSt11char_traitsIcEERSt13basic_ostreamIT_T0_ES6_, (%esp)
	movl	$__ZSt4cout, %ecx
	call	__ZNSolsEPFRSoS_E
	subl	$4, %esp
	movl	$0, -64(%ebp)
L369:
	leal	-964(%ebp), %eax
	movl	%eax, %ecx
	call	__ZNKSt7__cxx1112basic_stringIcSt11char_traitsIcESaIcEE6lengthEv
	movl	%eax, %edx
	movl	-64(%ebp), %eax
	cmpl	%eax, %edx
	seta	%al
	testb	%al, %al
	je	L368
	movl	-64(%ebp), %edx
	leal	-964(%ebp), %eax
	movl	%edx, (%esp)
	movl	%eax, %ecx
	call	__ZNSt7__cxx1112basic_stringIcSt11char_traitsIcESaIcEEixEj
	subl	$4, %esp
	movl	%eax, %ebx
	movl	-64(%ebp), %edx
	leal	-964(%ebp), %eax
	movl	%edx, (%esp)
	movl	%eax, %ecx
	call	__ZNSt7__cxx1112basic_stringIcSt11char_traitsIcESaIcEEixEj
	subl	$4, %esp
	movzbl	(%eax), %eax
	movsbl	%al, %eax
	movl	%eax, (%esp)
	call	_tolower
	movb	%al, (%ebx)
	addl	$1, -64(%ebp)
	jmp	L369
L368:
	movb	$0, -65(%ebp)
	movl	$0, -72(%ebp)
L385:
	movl	-92(%ebp), %eax
	addl	$28, %eax
	movl	%eax, %ecx
	call	__ZNKSt6vectorI8heapNodeSaIS0_EE4sizeEv
	movl	%eax, %edx
	movl	-72(%ebp), %eax
	cmpl	%eax, %edx
	seta	%al
	testb	%al, %al
	je	L370
	movl	-72(%ebp), %eax
	movl	-92(%ebp), %edx
	addl	$28, %edx
	movl	%eax, (%esp)
	movl	%edx, %ecx
	call	__ZNSt6vectorI8heapNodeSaIS0_EEixEj
	subl	$4, %esp
	movl	%eax, %edx
	leal	-964(%ebp), %eax
	movl	%eax, 4(%esp)
	movl	%edx, (%esp)
	call	__ZSteqIcEN9__gnu_cxx11__enable_ifIXsrSt9__is_charIT_E7__valueEbE6__typeERKNSt7__cxx1112basic_stringIS3_St11char_traitsIS3_ESaIS3_EEESE_
	testb	%al, %al
	je	L371
	movb	$1, -65(%ebp)
	movl	$LC62, 4(%esp)
	movl	$__ZSt4cout, (%esp)
	call	__ZStlsISt11char_traitsIcEERSt13basic_ostreamIcT_ES5_PKc
	movl	$__ZSt4endlIcSt11char_traitsIcEERSt13basic_ostreamIT_T0_ES6_, (%esp)
	movl	%eax, %ecx
	call	__ZNSolsEPFRSoS_E
	subl	$4, %esp
L384:
	leal	-964(%ebp), %eax
	movl	%eax, 4(%esp)
	movl	$__ZSt3cin, (%esp)
	call	__ZStrsIcSt11char_traitsIcESaIcEERSt13basic_istreamIT_T0_ES7_RNSt7__cxx1112basic_stringIS4_S5_T1_EE
	leal	-1064(%ebp), %eax
	movl	%eax, 4(%esp)
	movl	$__ZSt3cin, (%esp)
	call	__ZSt7getlineIcSt11char_traitsIcESaIcEERSt13basic_istreamIT_T0_ES7_RNSt7__cxx1112basic_stringIS4_S5_T1_EE
	movl	$0, -76(%ebp)
L373:
	leal	-964(%ebp), %eax
	movl	%eax, %ecx
	call	__ZNKSt7__cxx1112basic_stringIcSt11char_traitsIcESaIcEE6lengthEv
	movl	%eax, %edx
	movl	-76(%ebp), %eax
	cmpl	%eax, %edx
	seta	%al
	testb	%al, %al
	je	L372
	movl	-76(%ebp), %edx
	leal	-964(%ebp), %eax
	movl	%edx, (%esp)
	movl	%eax, %ecx
	call	__ZNSt7__cxx1112basic_stringIcSt11char_traitsIcESaIcEEixEj
	subl	$4, %esp
	movl	%eax, %ebx
	movl	-76(%ebp), %edx
	leal	-964(%ebp), %eax
	movl	%edx, (%esp)
	movl	%eax, %ecx
	call	__ZNSt7__cxx1112basic_stringIcSt11char_traitsIcESaIcEEixEj
	subl	$4, %esp
	movzbl	(%eax), %eax
	movsbl	%al, %eax
	movl	%eax, (%esp)
	call	_tolower
	movb	%al, (%ebx)
	addl	$1, -76(%ebp)
	jmp	L373
L372:
	movl	$LC63, 4(%esp)
	leal	-964(%ebp), %eax
	movl	%eax, (%esp)
	call	__ZSteqIcSt11char_traitsIcESaIcEEbRKNSt7__cxx1112basic_stringIT_T0_T1_EEPKS5_
	testb	%al, %al
	jne	L374
	movl	$LC64, 4(%esp)
	leal	-964(%ebp), %eax
	movl	%eax, (%esp)
	call	__ZSteqIcSt11char_traitsIcESaIcEEbRKNSt7__cxx1112basic_stringIT_T0_T1_EEPKS5_
	testb	%al, %al
	jne	L374
	movl	$LC65, 4(%esp)
	leal	-964(%ebp), %eax
	movl	%eax, (%esp)
	call	__ZSteqIcSt11char_traitsIcESaIcEEbRKNSt7__cxx1112basic_stringIT_T0_T1_EEPKS5_
	testb	%al, %al
	jne	L374
	movl	$LC66, 4(%esp)
	leal	-964(%ebp), %eax
	movl	%eax, (%esp)
	call	__ZSteqIcSt11char_traitsIcESaIcEEbRKNSt7__cxx1112basic_stringIT_T0_T1_EEPKS5_
	testb	%al, %al
	je	L375
L374:
	movl	$1, %eax
	jmp	L376
L375:
	movl	$0, %eax
L376:
	testb	%al, %al
	je	L377
	movl	-72(%ebp), %eax
	movl	-92(%ebp), %edx
	addl	$28, %edx
	movl	%eax, (%esp)
	movl	%edx, %ecx
	call	__ZNSt6vectorI8heapNodeSaIS0_EEixEj
	subl	$4, %esp
	movl	24(%eax), %edx
	addl	$1, %edx
	movl	%edx, 24(%eax)
	movl	-92(%ebp), %eax
	movl	-72(%ebp), %edx
	movl	%edx, (%esp)
	movl	%eax, %ecx
	call	__ZN8hashNode12repairUpwardEi
	subl	$4, %esp
	movl	-92(%ebp), %eax
	addl	$28, %eax
	movl	%eax, %ecx
	call	__ZNKSt6vectorI8heapNodeSaIS0_EE4sizeEv
	movl	%eax, -72(%ebp)
	jmp	L371
L377:
	movl	$LC67, 4(%esp)
	leal	-964(%ebp), %eax
	movl	%eax, (%esp)
	call	__ZSteqIcSt11char_traitsIcESaIcEEbRKNSt7__cxx1112basic_stringIT_T0_T1_EEPKS5_
	testb	%al, %al
	jne	L379
	movl	$LC68, 4(%esp)
	leal	-964(%ebp), %eax
	movl	%eax, (%esp)
	call	__ZSteqIcSt11char_traitsIcESaIcEEbRKNSt7__cxx1112basic_stringIT_T0_T1_EEPKS5_
	testb	%al, %al
	jne	L379
	movl	$LC69, 4(%esp)
	leal	-964(%ebp), %eax
	movl	%eax, (%esp)
	call	__ZSteqIcSt11char_traitsIcESaIcEEbRKNSt7__cxx1112basic_stringIT_T0_T1_EEPKS5_
	testb	%al, %al
	je	L380
L379:
	movl	$1, %eax
	jmp	L381
L380:
	movl	$0, %eax
L381:
	testb	%al, %al
	je	L382
	movl	-72(%ebp), %eax
	movl	-92(%ebp), %edx
	addl	$28, %edx
	movl	%eax, (%esp)
	movl	%edx, %ecx
	call	__ZNSt6vectorI8heapNodeSaIS0_EEixEj
	subl	$4, %esp
	movl	24(%eax), %eax
	testl	%eax, %eax
	sete	%al
	testb	%al, %al
	jne	L499
	movl	-72(%ebp), %eax
	movl	-92(%ebp), %edx
	addl	$28, %edx
	movl	%eax, (%esp)
	movl	%edx, %ecx
	call	__ZNSt6vectorI8heapNodeSaIS0_EEixEj
	subl	$4, %esp
	movl	24(%eax), %edx
	subl	$1, %edx
	movl	%edx, 24(%eax)
	movl	-92(%ebp), %eax
	movl	-72(%ebp), %edx
	movl	%edx, (%esp)
	movl	%eax, %ecx
	call	__ZN8hashNode14repairDownwardEi
	subl	$4, %esp
	movl	-92(%ebp), %eax
	addl	$28, %eax
	movl	%eax, %ecx
	call	__ZNKSt6vectorI8heapNodeSaIS0_EE4sizeEv
	movl	%eax, -72(%ebp)
	jmp	L371
L382:
	movl	$LC70, 4(%esp)
	movl	$__ZSt4cout, (%esp)
	call	__ZStlsISt11char_traitsIcEERSt13basic_ostreamIcT_ES5_PKc
	movl	$__ZSt4endlIcSt11char_traitsIcEERSt13basic_ostreamIT_T0_ES6_, (%esp)
	movl	%eax, %ecx
	call	__ZNSolsEPFRSoS_E
	subl	$4, %esp
	jmp	L384
L499:
	nop
L371:
	addl	$1, -72(%ebp)
	jmp	L385
L370:
	movzbl	-65(%ebp), %eax
	xorl	$1, %eax
	testb	%al, %al
	je	L386
	movl	$LC71, 4(%esp)
	movl	$__ZSt4cout, (%esp)
	call	__ZStlsISt11char_traitsIcEERSt13basic_ostreamIcT_ES5_PKc
	movl	$__ZSt4endlIcSt11char_traitsIcEERSt13basic_ostreamIT_T0_ES6_, (%esp)
	movl	%eax, %ecx
	call	__ZNSolsEPFRSoS_E
	subl	$4, %esp
	movl	$__ZSt4endlIcSt11char_traitsIcEERSt13basic_ostreamIT_T0_ES6_, (%esp)
	movl	$__ZSt4cout, %ecx
	call	__ZNSolsEPFRSoS_E
	subl	$4, %esp
	jmp	L387
L386:
	movl	$__ZSt4endlIcSt11char_traitsIcEERSt13basic_ostreamIT_T0_ES6_, (%esp)
	movl	$__ZSt4cout, %ecx
	call	__ZNSolsEPFRSoS_E
	subl	$4, %esp
	leal	-1040(%ebp), %eax
	movl	%eax, 4(%esp)
	movl	$__ZSt4cout, (%esp)
	call	__ZStlsIcSt11char_traitsIcESaIcEERSt13basic_ostreamIT_T0_ES7_RKNSt7__cxx1112basic_stringIS4_S5_T1_EE
	movl	$LC14, 4(%esp)
	movl	%eax, (%esp)
	call	__ZStlsISt11char_traitsIcEERSt13basic_ostreamIcT_ES5_PKc
	movl	$__ZSt4endlIcSt11char_traitsIcEERSt13basic_ostreamIT_T0_ES6_, (%esp)
	movl	%eax, %ecx
	call	__ZNSolsEPFRSoS_E
	subl	$4, %esp
	movl	$1, -80(%ebp)
L389:
	movl	-92(%ebp), %eax
	addl	$28, %eax
	movl	%eax, %ecx
	call	__ZNKSt6vectorI8heapNodeSaIS0_EE4sizeEv
	leal	-1(%eax), %edx
	movl	-80(%ebp), %eax
	cmpl	%eax, %edx
	seta	%al
	testb	%al, %al
	je	L388
	movl	-80(%ebp), %eax
	movl	-92(%ebp), %edx
	addl	$28, %edx
	movl	%eax, (%esp)
	movl	%edx, %ecx
	call	__ZNSt6vectorI8heapNodeSaIS0_EEixEj
	subl	$4, %esp
	movl	%eax, 4(%esp)
	movl	$__ZSt4cout, (%esp)
	call	__ZStlsIcSt11char_traitsIcESaIcEERSt13basic_ostreamIT_T0_ES7_RKNSt7__cxx1112basic_stringIS4_S5_T1_EE
	movl	$LC47, 4(%esp)
	movl	%eax, (%esp)
	call	__ZStlsISt11char_traitsIcEERSt13basic_ostreamIcT_ES5_PKc
	movl	$__ZSt5flushIcSt11char_traitsIcEERSt13basic_ostreamIT_T0_ES6_, (%esp)
	movl	%eax, %ecx
	call	__ZNSolsEPFRSoS_E
	subl	$4, %esp
	addl	$1, -80(%ebp)
	jmp	L389
L388:
	movl	-92(%ebp), %eax
	addl	$28, %eax
	movl	%eax, %ecx
	call	__ZNKSt6vectorI8heapNodeSaIS0_EE4sizeEv
	leal	-1(%eax), %edx
	movl	-92(%ebp), %eax
	addl	$28, %eax
	movl	%edx, (%esp)
	movl	%eax, %ecx
	call	__ZNSt6vectorI8heapNodeSaIS0_EEixEj
	subl	$4, %esp
	movl	%eax, 4(%esp)
	movl	$__ZSt4cout, (%esp)
	call	__ZStlsIcSt11char_traitsIcESaIcEERSt13basic_ostreamIT_T0_ES7_RKNSt7__cxx1112basic_stringIS4_S5_T1_EE
	movl	$__ZSt5flushIcSt11char_traitsIcEERSt13basic_ostreamIT_T0_ES6_, (%esp)
	movl	%eax, %ecx
	call	__ZNSolsEPFRSoS_E
	subl	$4, %esp
	movl	$__ZSt4endlIcSt11char_traitsIcEERSt13basic_ostreamIT_T0_ES6_, (%esp)
	movl	$__ZSt4cout, %ecx
	call	__ZNSolsEPFRSoS_E
	subl	$4, %esp
	movl	$__ZSt4endlIcSt11char_traitsIcEERSt13basic_ostreamIT_T0_ES6_, (%esp)
	movl	$__ZSt4cout, %ecx
	call	__ZNSolsEPFRSoS_E
	subl	$4, %esp
L387:
	movl	$LC72, 4(%esp)
	movl	$__ZSt4cout, (%esp)
	call	__ZStlsISt11char_traitsIcEERSt13basic_ostreamIcT_ES5_PKc
	movl	$__ZSt4endlIcSt11char_traitsIcEERSt13basic_ostreamIT_T0_ES6_, (%esp)
	movl	%eax, %ecx
	call	__ZNSolsEPFRSoS_E
	subl	$4, %esp
	jmp	L390
L367:
	movl	$LC73, 4(%esp)
	leal	-964(%ebp), %eax
	movl	%eax, (%esp)
	call	__ZSteqIcSt11char_traitsIcESaIcEEbRKNSt7__cxx1112basic_stringIT_T0_T1_EEPKS5_
	testb	%al, %al
	jne	L391
	movl	$LC29, 4(%esp)
	leal	-964(%ebp), %eax
	movl	%eax, (%esp)
	call	__ZSteqIcSt11char_traitsIcESaIcEEbRKNSt7__cxx1112basic_stringIT_T0_T1_EEPKS5_
	testb	%al, %al
	jne	L391
	movl	$LC30, 4(%esp)
	leal	-964(%ebp), %eax
	movl	%eax, (%esp)
	call	__ZSteqIcSt11char_traitsIcESaIcEEbRKNSt7__cxx1112basic_stringIT_T0_T1_EEPKS5_
	testb	%al, %al
	jne	L391
	movl	$LC74, 4(%esp)
	leal	-964(%ebp), %eax
	movl	%eax, (%esp)
	call	__ZSteqIcSt11char_traitsIcESaIcEEbRKNSt7__cxx1112basic_stringIT_T0_T1_EEPKS5_
	testb	%al, %al
	jne	L391
	movl	$LC75, 4(%esp)
	leal	-964(%ebp), %eax
	movl	%eax, (%esp)
	call	__ZSteqIcSt11char_traitsIcESaIcEEbRKNSt7__cxx1112basic_stringIT_T0_T1_EEPKS5_
	testb	%al, %al
	jne	L391
	movl	$LC76, 4(%esp)
	leal	-964(%ebp), %eax
	movl	%eax, (%esp)
	call	__ZSteqIcSt11char_traitsIcESaIcEEbRKNSt7__cxx1112basic_stringIT_T0_T1_EEPKS5_
	testb	%al, %al
	je	L392
L391:
	movl	$1, %eax
	jmp	L393
L392:
	movl	$0, %eax
L393:
	testb	%al, %al
	je	L390
	movl	$__ZSt4endlIcSt11char_traitsIcEERSt13basic_ostreamIT_T0_ES6_, (%esp)
	movl	$__ZSt4cout, %ecx
	call	__ZNSolsEPFRSoS_E
LEHE94:
	subl	$4, %esp
	movl	$0, %ebx
	jmp	L394
L390:
	movl	$1, %ebx
L394:
	leal	-1064(%ebp), %eax
	movl	%eax, %ecx
	call	__ZNSt7__cxx1112basic_stringIcSt11char_traitsIcESaIcEED1Ev
	cmpl	$1, %ebx
	jne	L500
	nop
	jmp	L397
L500:
	nop
	leal	-1040(%ebp), %eax
	movl	%eax, %ecx
	call	__ZNSt7__cxx1112basic_stringIcSt11char_traitsIcESaIcEED1Ev
L361:
	leal	-1016(%ebp), %eax
	movl	%eax, %ecx
	call	__ZNSt7__cxx1112basic_stringIcSt11char_traitsIcESaIcEED1Ev
L348:
	leal	-992(%ebp), %eax
	movl	%eax, %ecx
	call	__ZNSt7__cxx1112basic_stringIcSt11char_traitsIcESaIcEED1Ev
	leal	-964(%ebp), %eax
	movl	%eax, %ecx
	call	__ZNSt7__cxx1112basic_stringIcSt11char_traitsIcESaIcEED1Ev
	jmp	L328
L343:
	cmpb	$81, -45(%ebp)
	je	L399
	cmpb	$113, -45(%ebp)
	jne	L400
L399:
	movl	$__ZSt4endlIcSt11char_traitsIcEERSt13basic_ostreamIT_T0_ES6_, (%esp)
	movl	$__ZSt4cout, %ecx
LEHB95:
	call	__ZNSolsEPFRSoS_E
	subl	$4, %esp
	movl	$LC77, 4(%esp)
	movl	$__ZSt4cout, (%esp)
	call	__ZStlsISt11char_traitsIcEERSt13basic_ostreamIcT_ES5_PKc
	movl	$__ZSt4endlIcSt11char_traitsIcEERSt13basic_ostreamIT_T0_ES6_, (%esp)
	movl	%eax, %ecx
	call	__ZNSolsEPFRSoS_E
	subl	$4, %esp
	movl	$0, %ebx
	jmp	L401
L400:
	movl	$LC78, 4(%esp)
	movl	$__ZSt4cout, (%esp)
	call	__ZStlsISt11char_traitsIcEERSt13basic_ostreamIcT_ES5_PKc
	movl	$__ZSt4endlIcSt11char_traitsIcEERSt13basic_ostreamIT_T0_ES6_, (%esp)
	movl	%eax, %ecx
	call	__ZNSolsEPFRSoS_E
	subl	$4, %esp
	movl	$__ZSt4endlIcSt11char_traitsIcEERSt13basic_ostreamIT_T0_ES6_, (%esp)
	movl	$__ZSt4cout, %ecx
	call	__ZNSolsEPFRSoS_E
LEHE95:
	subl	$4, %esp
L328:
	movl	$1, %ebx
L401:
	leal	-1480(%ebp), %eax
	movl	%eax, %ecx
	call	__ZNSt7__cxx1118basic_stringstreamIcSt11char_traitsIcESaIcEED1Ev
	cmpl	$1, %ebx
	je	L501
	movl	$0, %ebx
	jmp	L405
L501:
	nop
	movl	$1, %ebx
L405:
	leal	-924(%ebp), %eax
	movl	%eax, %ecx
	call	__ZNSt7__cxx1112basic_stringIcSt11char_traitsIcESaIcEED1Ev
	cmpl	$1, %ebx
	je	L502
	movl	$0, %ebx
	jmp	L409
L502:
	nop
	movl	$1, %ebx
L409:
	leal	-900(%ebp), %eax
	movl	%eax, %ecx
	call	__ZNSt7__cxx1112basic_stringIcSt11char_traitsIcESaIcEED1Ev
	cmpl	$1, %ebx
	jne	L494
	nop
	jmp	L412
L494:
	leal	-792(%ebp), %eax
	movl	%eax, %ecx
	call	__ZNSt7__cxx1112basic_stringIcSt11char_traitsIcESaIcEED1Ev
	movl	$1, %ebx
L296:
	leal	-768(%ebp), %eax
	movl	%eax, %ecx
	call	__ZNSt14basic_ifstreamIcSt11char_traitsIcEED1Ev
	cmpl	$1, %ebx
	je	L503
	movl	$0, %ebx
	jmp	L416
L503:
	nop
	movl	$1, %ebx
L416:
	leal	-516(%ebp), %eax
	movl	%eax, %ecx
	call	__ZNSt6vectorINSt7__cxx1112basic_stringIcSt11char_traitsIcESaIcEEESaIS5_EED1Ev
	cmpl	$1, %ebx
	je	L504
	movl	$0, %ebx
	jmp	L420
L504:
	nop
	movl	$1, %ebx
L420:
	leal	-504(%ebp), %eax
	movl	%eax, %ecx
	call	__ZN7hashLibD1Ev
	cmpl	$1, %ebx
	jne	L423
	nop
	movl	$0, %edi
L423:
	movl	%edi, %eax
	jmp	L495
L458:
	movl	%eax, %ebx
	leal	-496(%ebp), %eax
	movl	%eax, %ecx
	call	__ZNSt7__cxx1112basic_stringIcSt11char_traitsIcESaIcEED1Ev
	jmp	L425
L457:
	movl	%eax, %ebx
L425:
	leal	-469(%ebp), %eax
	movl	%eax, %ecx
	call	__ZNSaIcED1Ev
	movl	%ebx, %eax
	movl	%eax, (%esp)
LEHB96:
	call	__Unwind_Resume
L464:
	movl	%eax, %ebx
	leal	-444(%ebp), %eax
	movl	%eax, %ecx
	call	__ZNSt7__cxx1112basic_stringIcSt11char_traitsIcESaIcEED1Ev
	jmp	L427
L465:
	movl	%eax, %ebx
	leal	-420(%ebp), %eax
	movl	%eax, %ecx
	call	__ZNSt7__cxx1112basic_stringIcSt11char_traitsIcESaIcEED1Ev
	jmp	L427
L467:
	movl	%eax, %ebx
	leal	-396(%ebp), %eax
	movl	%eax, %ecx
	call	__ZNSt7__cxx1112basic_stringIcSt11char_traitsIcESaIcEED1Ev
	jmp	L430
L468:
	movl	%eax, %ebx
	leal	-348(%ebp), %eax
	movl	%eax, %ecx
	call	__ZNSt7__cxx1112basic_stringIcSt11char_traitsIcESaIcEED1Ev
	jmp	L430
L469:
	movl	%eax, %ebx
	leal	-324(%ebp), %eax
	movl	%eax, %ecx
	call	__ZNSt7__cxx1112basic_stringIcSt11char_traitsIcESaIcEED1Ev
	jmp	L430
L470:
	movl	%eax, %ebx
	leal	-300(%ebp), %eax
	movl	%eax, %ecx
	call	__ZNSt7__cxx1112basic_stringIcSt11char_traitsIcESaIcEED1Ev
	jmp	L430
L472:
	movl	%eax, %ebx
	leal	-252(%ebp), %eax
	movl	%eax, %ecx
	call	__ZNSt7__cxx1112basic_stringIcSt11char_traitsIcESaIcEED1Ev
	jmp	L435
L471:
	movl	%eax, %ebx
L435:
	leal	-276(%ebp), %eax
	movl	%eax, %ecx
	call	__ZNSt7__cxx1112basic_stringIcSt11char_traitsIcESaIcEED1Ev
	jmp	L430
L474:
	movl	%eax, %ebx
	leal	-204(%ebp), %eax
	movl	%eax, %ecx
	call	__ZNSt7__cxx1112basic_stringIcSt11char_traitsIcESaIcEED1Ev
	jmp	L437
L473:
	movl	%eax, %ebx
L437:
	leal	-228(%ebp), %eax
	movl	%eax, %ecx
	call	__ZNSt7__cxx1112basic_stringIcSt11char_traitsIcESaIcEED1Ev
	jmp	L430
L466:
	movl	%eax, %ebx
L430:
	leal	-876(%ebp), %eax
	movl	%eax, %ecx
	call	__ZNSt6vectorINSt7__cxx1112basic_stringIcSt11char_traitsIcESaIcEEESaIS5_EED1Ev
	leal	-864(%ebp), %eax
	movl	%eax, %ecx
	call	__ZNSt7__cxx1112basic_stringIcSt11char_traitsIcESaIcEED1Ev
	leal	-840(%ebp), %eax
	movl	%eax, %ecx
	call	__ZNSt7__cxx1112basic_stringIcSt11char_traitsIcESaIcEED1Ev
	jmp	L427
L463:
	movl	%eax, %ebx
L427:
	leal	-1272(%ebp), %eax
	movl	%eax, %ecx
	call	__ZNSt7__cxx1118basic_stringstreamIcSt11char_traitsIcESaIcEED1Ev
	jmp	L438
L462:
	movl	%eax, %ebx
L438:
	leal	-816(%ebp), %eax
	movl	%eax, %ecx
	call	__ZNSt7__cxx1112basic_stringIcSt11char_traitsIcESaIcEED1Ev
	jmp	L439
L478:
	movl	%eax, %ebx
	leal	-180(%ebp), %eax
	movl	%eax, %ecx
	call	__ZNSt6vectorINSt7__cxx1112basic_stringIcSt11char_traitsIcESaIcEEESaIS5_EED1Ev
	jmp	L441
L481:
	movl	%eax, %ebx
	leal	-168(%ebp), %eax
	movl	%eax, %ecx
	call	__ZNSt6vectorINSt7__cxx1112basic_stringIcSt11char_traitsIcESaIcEEESaIS5_EED1Ev
	jmp	L443
L482:
	movl	%eax, %ebx
	leal	-156(%ebp), %eax
	movl	%eax, %ecx
	call	__ZNSt6vectorINSt7__cxx1112basic_stringIcSt11char_traitsIcESaIcEEESaIS5_EED1Ev
	jmp	L443
L480:
	movl	%eax, %ebx
L443:
	leal	-1272(%ebp), %eax
	movl	%eax, %ecx
	call	__ZNSt7__cxx1118basic_stringstreamIcSt11char_traitsIcESaIcEED1Ev
	movl	%ebx, %esi
	jmp	L445
L479:
	movl	%eax, %esi
L445:
	leal	-1576(%ebp), %ebx
	addl	$96, %ebx
L447:
	leal	-1576(%ebp), %eax
	cmpl	%eax, %ebx
	je	L446
	subl	$32, %ebx
	movl	%ebx, %ecx
	call	__ZN8heapNodeD1Ev
	jmp	L447
L446:
	movl	%esi, %ebx
	jmp	L441
L485:
	movl	%eax, %ebx
	leal	-120(%ebp), %eax
	movl	%eax, %ecx
	call	__ZNSt7__cxx1112basic_stringIcSt11char_traitsIcESaIcEED1Ev
	jmp	L449
L487:
	movl	%eax, %ebx
	leal	-1064(%ebp), %eax
	movl	%eax, %ecx
	call	__ZNSt7__cxx1112basic_stringIcSt11char_traitsIcESaIcEED1Ev
	jmp	L451
L486:
	movl	%eax, %ebx
L451:
	leal	-1040(%ebp), %eax
	movl	%eax, %ecx
	call	__ZNSt7__cxx1112basic_stringIcSt11char_traitsIcESaIcEED1Ev
	jmp	L449
L484:
	movl	%eax, %ebx
L449:
	leal	-1016(%ebp), %eax
	movl	%eax, %ecx
	call	__ZNSt7__cxx1112basic_stringIcSt11char_traitsIcESaIcEED1Ev
	jmp	L452
L483:
	movl	%eax, %ebx
L452:
	leal	-992(%ebp), %eax
	movl	%eax, %ecx
	call	__ZNSt7__cxx1112basic_stringIcSt11char_traitsIcESaIcEED1Ev
	leal	-964(%ebp), %eax
	movl	%eax, %ecx
	call	__ZNSt7__cxx1112basic_stringIcSt11char_traitsIcESaIcEED1Ev
	jmp	L441
L477:
	movl	%eax, %ebx
L441:
	leal	-1480(%ebp), %eax
	movl	%eax, %ecx
	call	__ZNSt7__cxx1118basic_stringstreamIcSt11char_traitsIcESaIcEED1Ev
	jmp	L453
L476:
	movl	%eax, %ebx
L453:
	leal	-924(%ebp), %eax
	movl	%eax, %ecx
	call	__ZNSt7__cxx1112basic_stringIcSt11char_traitsIcESaIcEED1Ev
	jmp	L454
L475:
	movl	%eax, %ebx
L454:
	leal	-900(%ebp), %eax
	movl	%eax, %ecx
	call	__ZNSt7__cxx1112basic_stringIcSt11char_traitsIcESaIcEED1Ev
	jmp	L439
L461:
	movl	%eax, %ebx
L439:
	leal	-792(%ebp), %eax
	movl	%eax, %ecx
	call	__ZNSt7__cxx1112basic_stringIcSt11char_traitsIcESaIcEED1Ev
	jmp	L455
L460:
	movl	%eax, %ebx
L455:
	leal	-768(%ebp), %eax
	movl	%eax, %ecx
	call	__ZNSt14basic_ifstreamIcSt11char_traitsIcEED1Ev
	jmp	L456
L459:
	movl	%eax, %ebx
L456:
	leal	-516(%ebp), %eax
	movl	%eax, %ecx
	call	__ZNSt6vectorINSt7__cxx1112basic_stringIcSt11char_traitsIcESaIcEEESaIS5_EED1Ev
	leal	-504(%ebp), %eax
	movl	%eax, %ecx
	call	__ZN7hashLibD1Ev
	movl	%ebx, %eax
	movl	%eax, (%esp)
	call	__Unwind_Resume
LEHE96:
L495:
	leal	-16(%ebp), %esp
	popl	%ecx
	.cfi_restore 1
	.cfi_def_cfa 1, 0
	popl	%ebx
	.cfi_restore 3
	popl	%esi
	.cfi_restore 6
	popl	%edi
	.cfi_restore 7
	popl	%ebp
	.cfi_restore 5
	leal	-4(%ecx), %esp
	.cfi_def_cfa 4, 4
	ret
	.cfi_endproc
LFE2420:
	.section	.gcc_except_table,"w"
LLSDA2420:
	.byte	0xff
	.byte	0xff
	.byte	0x1
	.uleb128 LLSDACSE2420-LLSDACSB2420
LLSDACSB2420:
	.uleb128 LEHB52-LFB2420
	.uleb128 LEHE52-LEHB52
	.uleb128 L457-LFB2420
	.uleb128 0
	.uleb128 LEHB53-LFB2420
	.uleb128 LEHE53-LEHB53
	.uleb128 L458-LFB2420
	.uleb128 0
	.uleb128 LEHB54-LFB2420
	.uleb128 LEHE54-LEHB54
	.uleb128 L459-LFB2420
	.uleb128 0
	.uleb128 LEHB55-LFB2420
	.uleb128 LEHE55-LEHB55
	.uleb128 L460-LFB2420
	.uleb128 0
	.uleb128 LEHB56-LFB2420
	.uleb128 LEHE56-LEHB56
	.uleb128 L461-LFB2420
	.uleb128 0
	.uleb128 LEHB57-LFB2420
	.uleb128 LEHE57-LEHB57
	.uleb128 L462-LFB2420
	.uleb128 0
	.uleb128 LEHB58-LFB2420
	.uleb128 LEHE58-LEHB58
	.uleb128 L463-LFB2420
	.uleb128 0
	.uleb128 LEHB59-LFB2420
	.uleb128 LEHE59-LEHB59
	.uleb128 L464-LFB2420
	.uleb128 0
	.uleb128 LEHB60-LFB2420
	.uleb128 LEHE60-LEHB60
	.uleb128 L463-LFB2420
	.uleb128 0
	.uleb128 LEHB61-LFB2420
	.uleb128 LEHE61-LEHB61
	.uleb128 L465-LFB2420
	.uleb128 0
	.uleb128 LEHB62-LFB2420
	.uleb128 LEHE62-LEHB62
	.uleb128 L466-LFB2420
	.uleb128 0
	.uleb128 LEHB63-LFB2420
	.uleb128 LEHE63-LEHB63
	.uleb128 L467-LFB2420
	.uleb128 0
	.uleb128 LEHB64-LFB2420
	.uleb128 LEHE64-LEHB64
	.uleb128 L466-LFB2420
	.uleb128 0
	.uleb128 LEHB65-LFB2420
	.uleb128 LEHE65-LEHB65
	.uleb128 L468-LFB2420
	.uleb128 0
	.uleb128 LEHB66-LFB2420
	.uleb128 LEHE66-LEHB66
	.uleb128 L466-LFB2420
	.uleb128 0
	.uleb128 LEHB67-LFB2420
	.uleb128 LEHE67-LEHB67
	.uleb128 L469-LFB2420
	.uleb128 0
	.uleb128 LEHB68-LFB2420
	.uleb128 LEHE68-LEHB68
	.uleb128 L466-LFB2420
	.uleb128 0
	.uleb128 LEHB69-LFB2420
	.uleb128 LEHE69-LEHB69
	.uleb128 L470-LFB2420
	.uleb128 0
	.uleb128 LEHB70-LFB2420
	.uleb128 LEHE70-LEHB70
	.uleb128 L466-LFB2420
	.uleb128 0
	.uleb128 LEHB71-LFB2420
	.uleb128 LEHE71-LEHB71
	.uleb128 L471-LFB2420
	.uleb128 0
	.uleb128 LEHB72-LFB2420
	.uleb128 LEHE72-LEHB72
	.uleb128 L472-LFB2420
	.uleb128 0
	.uleb128 LEHB73-LFB2420
	.uleb128 LEHE73-LEHB73
	.uleb128 L466-LFB2420
	.uleb128 0
	.uleb128 LEHB74-LFB2420
	.uleb128 LEHE74-LEHB74
	.uleb128 L473-LFB2420
	.uleb128 0
	.uleb128 LEHB75-LFB2420
	.uleb128 LEHE75-LEHB75
	.uleb128 L474-LFB2420
	.uleb128 0
	.uleb128 LEHB76-LFB2420
	.uleb128 LEHE76-LEHB76
	.uleb128 L461-LFB2420
	.uleb128 0
	.uleb128 LEHB77-LFB2420
	.uleb128 LEHE77-LEHB77
	.uleb128 L475-LFB2420
	.uleb128 0
	.uleb128 LEHB78-LFB2420
	.uleb128 LEHE78-LEHB78
	.uleb128 L476-LFB2420
	.uleb128 0
	.uleb128 LEHB79-LFB2420
	.uleb128 LEHE79-LEHB79
	.uleb128 L477-LFB2420
	.uleb128 0
	.uleb128 LEHB80-LFB2420
	.uleb128 LEHE80-LEHB80
	.uleb128 L478-LFB2420
	.uleb128 0
	.uleb128 LEHB81-LFB2420
	.uleb128 LEHE81-LEHB81
	.uleb128 L477-LFB2420
	.uleb128 0
	.uleb128 LEHB82-LFB2420
	.uleb128 LEHE82-LEHB82
	.uleb128 L479-LFB2420
	.uleb128 0
	.uleb128 LEHB83-LFB2420
	.uleb128 LEHE83-LEHB83
	.uleb128 L480-LFB2420
	.uleb128 0
	.uleb128 LEHB84-LFB2420
	.uleb128 LEHE84-LEHB84
	.uleb128 L481-LFB2420
	.uleb128 0
	.uleb128 LEHB85-LFB2420
	.uleb128 LEHE85-LEHB85
	.uleb128 L480-LFB2420
	.uleb128 0
	.uleb128 LEHB86-LFB2420
	.uleb128 LEHE86-LEHB86
	.uleb128 L482-LFB2420
	.uleb128 0
	.uleb128 LEHB87-LFB2420
	.uleb128 LEHE87-LEHB87
	.uleb128 L480-LFB2420
	.uleb128 0
	.uleb128 LEHB88-LFB2420
	.uleb128 LEHE88-LEHB88
	.uleb128 L477-LFB2420
	.uleb128 0
	.uleb128 LEHB89-LFB2420
	.uleb128 LEHE89-LEHB89
	.uleb128 L483-LFB2420
	.uleb128 0
	.uleb128 LEHB90-LFB2420
	.uleb128 LEHE90-LEHB90
	.uleb128 L484-LFB2420
	.uleb128 0
	.uleb128 LEHB91-LFB2420
	.uleb128 LEHE91-LEHB91
	.uleb128 L485-LFB2420
	.uleb128 0
	.uleb128 LEHB92-LFB2420
	.uleb128 LEHE92-LEHB92
	.uleb128 L484-LFB2420
	.uleb128 0
	.uleb128 LEHB93-LFB2420
	.uleb128 LEHE93-LEHB93
	.uleb128 L486-LFB2420
	.uleb128 0
	.uleb128 LEHB94-LFB2420
	.uleb128 LEHE94-LEHB94
	.uleb128 L487-LFB2420
	.uleb128 0
	.uleb128 LEHB95-LFB2420
	.uleb128 LEHE95-LEHB95
	.uleb128 L477-LFB2420
	.uleb128 0
	.uleb128 LEHB96-LFB2420
	.uleb128 LEHE96-LEHB96
	.uleb128 0
	.uleb128 0
LLSDACSE2420:
	.text
	.section	.text$_ZZN9__gnu_cxx6__stoaIlicJiEEET0_PFT_PKT1_PPS3_DpT2_EPKcS5_PjS9_EN11_Save_errnoC1Ev,"x"
	.linkonce discard
	.align 2
	.globl	__ZZN9__gnu_cxx6__stoaIlicJiEEET0_PFT_PKT1_PPS3_DpT2_EPKcS5_PjS9_EN11_Save_errnoC1Ev
	.def	__ZZN9__gnu_cxx6__stoaIlicJiEEET0_PFT_PKT1_PPS3_DpT2_EPKcS5_PjS9_EN11_Save_errnoC1Ev;	.scl	2;	.type	32;	.endef
__ZZN9__gnu_cxx6__stoaIlicJiEEET0_PFT_PKT1_PPS3_DpT2_EPKcS5_PjS9_EN11_Save_errnoC1Ev:
LFB2425:
	.cfi_startproc
	pushl	%ebp
	.cfi_def_cfa_offset 8
	.cfi_offset 5, -8
	movl	%esp, %ebp
	.cfi_def_cfa_register 5
	subl	$24, %esp
	movl	%ecx, -12(%ebp)
	call	__errno
	movl	(%eax), %edx
	movl	-12(%ebp), %eax
	movl	%edx, (%eax)
	call	__errno
	movl	$0, (%eax)
	nop
	leave
	.cfi_restore 5
	.cfi_def_cfa 4, 4
	ret
	.cfi_endproc
LFE2425:
	.section	.text$_ZZN9__gnu_cxx6__stoaIlicJiEEET0_PFT_PKT1_PPS3_DpT2_EPKcS5_PjS9_EN11_Save_errnoD1Ev,"x"
	.linkonce discard
	.align 2
	.globl	__ZZN9__gnu_cxx6__stoaIlicJiEEET0_PFT_PKT1_PPS3_DpT2_EPKcS5_PjS9_EN11_Save_errnoD1Ev
	.def	__ZZN9__gnu_cxx6__stoaIlicJiEEET0_PFT_PKT1_PPS3_DpT2_EPKcS5_PjS9_EN11_Save_errnoD1Ev;	.scl	2;	.type	32;	.endef
__ZZN9__gnu_cxx6__stoaIlicJiEEET0_PFT_PKT1_PPS3_DpT2_EPKcS5_PjS9_EN11_Save_errnoD1Ev:
LFB2428:
	.cfi_startproc
	pushl	%ebp
	.cfi_def_cfa_offset 8
	.cfi_offset 5, -8
	movl	%esp, %ebp
	.cfi_def_cfa_register 5
	subl	$24, %esp
	movl	%ecx, -12(%ebp)
	call	__errno
	movl	(%eax), %eax
	testl	%eax, %eax
	sete	%al
	testb	%al, %al
	je	L508
	call	__errno
	movl	%eax, %edx
	movl	-12(%ebp), %eax
	movl	(%eax), %eax
	movl	%eax, (%edx)
L508:
	nop
	leave
	.cfi_restore 5
	.cfi_def_cfa 4, 4
	ret
	.cfi_endproc
LFE2428:
	.section	.text$_ZN9__gnu_cxx6__stoaIlicJiEEET0_PFT_PKT1_PPS3_DpT2_EPKcS5_PjS9_,"x"
	.linkonce discard
	.globl	__ZN9__gnu_cxx6__stoaIlicJiEEET0_PFT_PKT1_PPS3_DpT2_EPKcS5_PjS9_
	.def	__ZN9__gnu_cxx6__stoaIlicJiEEET0_PFT_PKT1_PPS3_DpT2_EPKcS5_PjS9_;	.scl	2;	.type	32;	.endef
__ZN9__gnu_cxx6__stoaIlicJiEEET0_PFT_PKT1_PPS3_DpT2_EPKcS5_PjS9_:
LFB2422:
	.cfi_startproc
	.cfi_personality 0,___gxx_personality_v0
	.cfi_lsda 0,LLSDA2422
	pushl	%ebp
	.cfi_def_cfa_offset 8
	.cfi_offset 5, -8
	movl	%esp, %ebp
	.cfi_def_cfa_register 5
	pushl	%ebx
	subl	$36, %esp
	.cfi_offset 3, -12
	leal	-24(%ebp), %eax
	movl	%eax, %ecx
	call	__ZZN9__gnu_cxx6__stoaIlicJiEEET0_PFT_PKT1_PPS3_DpT2_EPKcS5_PjS9_EN11_Save_errnoC1Ev
	movl	24(%ebp), %eax
	movl	%eax, 8(%esp)
	leal	-20(%ebp), %eax
	movl	%eax, 4(%esp)
	movl	16(%ebp), %eax
	movl	%eax, (%esp)
	movl	8(%ebp), %eax
LEHB97:
	call	*%eax
	movl	%eax, -12(%ebp)
	movl	-20(%ebp), %eax
	cmpl	16(%ebp), %eax
	jne	L510
	movl	12(%ebp), %eax
	movl	%eax, (%esp)
	call	__ZSt24__throw_invalid_argumentPKc
L510:
	call	__errno
	movl	(%eax), %eax
	cmpl	$34, %eax
	jne	L511
	movl	$1, %eax
	jmp	L512
L511:
	movl	$0, %eax
L512:
	testb	%al, %al
	je	L513
	movl	12(%ebp), %eax
	movl	%eax, (%esp)
	call	__ZSt20__throw_out_of_rangePKc
LEHE97:
L513:
	movl	-12(%ebp), %eax
	movl	%eax, -16(%ebp)
	cmpl	$0, 20(%ebp)
	je	L514
	movl	-20(%ebp), %eax
	movl	%eax, %edx
	movl	16(%ebp), %eax
	subl	%eax, %edx
	movl	%edx, %eax
	movl	%eax, %edx
	movl	20(%ebp), %eax
	movl	%edx, (%eax)
L514:
	movl	-16(%ebp), %ebx
	leal	-24(%ebp), %eax
	movl	%eax, %ecx
	call	__ZZN9__gnu_cxx6__stoaIlicJiEEET0_PFT_PKT1_PPS3_DpT2_EPKcS5_PjS9_EN11_Save_errnoD1Ev
	movl	%ebx, %eax
	jmp	L518
L517:
	movl	%eax, %ebx
	leal	-24(%ebp), %eax
	movl	%eax, %ecx
	call	__ZZN9__gnu_cxx6__stoaIlicJiEEET0_PFT_PKT1_PPS3_DpT2_EPKcS5_PjS9_EN11_Save_errnoD1Ev
	movl	%ebx, %eax
	movl	%eax, (%esp)
LEHB98:
	call	__Unwind_Resume
LEHE98:
L518:
	addl	$36, %esp
	popl	%ebx
	.cfi_restore 3
	popl	%ebp
	.cfi_restore 5
	.cfi_def_cfa 4, 4
	ret
	.cfi_endproc
LFE2422:
	.section	.gcc_except_table,"w"
LLSDA2422:
	.byte	0xff
	.byte	0xff
	.byte	0x1
	.uleb128 LLSDACSE2422-LLSDACSB2422
LLSDACSB2422:
	.uleb128 LEHB97-LFB2422
	.uleb128 LEHE97-LEHB97
	.uleb128 L517-LFB2422
	.uleb128 0
	.uleb128 LEHB98-LFB2422
	.uleb128 LEHE98-LEHB98
	.uleb128 0
	.uleb128 0
LLSDACSE2422:
	.section	.text$_ZN9__gnu_cxx6__stoaIlicJiEEET0_PFT_PKT1_PPS3_DpT2_EPKcS5_PjS9_,"x"
	.linkonce discard
	.section	.text$_ZNSt6vectorI8heapNodeSaIS0_EEC1Ev,"x"
	.linkonce discard
	.align 2
	.globl	__ZNSt6vectorI8heapNodeSaIS0_EEC1Ev
	.def	__ZNSt6vectorI8heapNodeSaIS0_EEC1Ev;	.scl	2;	.type	32;	.endef
__ZNSt6vectorI8heapNodeSaIS0_EEC1Ev:
LFB2655:
	.cfi_startproc
	.cfi_personality 0,___gxx_personality_v0
	.cfi_lsda 0,LLSDA2655
	pushl	%ebp
	.cfi_def_cfa_offset 8
	.cfi_offset 5, -8
	movl	%esp, %ebp
	.cfi_def_cfa_register 5
	subl	$24, %esp
	movl	%ecx, -12(%ebp)
	movl	-12(%ebp), %eax
	movl	%eax, %ecx
	call	__ZNSt12_Vector_baseI8heapNodeSaIS0_EEC2Ev
	nop
	leave
	.cfi_restore 5
	.cfi_def_cfa 4, 4
	ret
	.cfi_endproc
LFE2655:
	.section	.gcc_except_table,"w"
LLSDA2655:
	.byte	0xff
	.byte	0xff
	.byte	0x1
	.uleb128 LLSDACSE2655-LLSDACSB2655
LLSDACSB2655:
LLSDACSE2655:
	.section	.text$_ZNSt6vectorI8heapNodeSaIS0_EEC1Ev,"x"
	.linkonce discard
	.section	.text$_ZNSt6vectorI8heapNodeSaIS0_EED1Ev,"x"
	.linkonce discard
	.align 2
	.globl	__ZNSt6vectorI8heapNodeSaIS0_EED1Ev
	.def	__ZNSt6vectorI8heapNodeSaIS0_EED1Ev;	.scl	2;	.type	32;	.endef
__ZNSt6vectorI8heapNodeSaIS0_EED1Ev:
LFB2658:
	.cfi_startproc
	.cfi_personality 0,___gxx_personality_v0
	.cfi_lsda 0,LLSDA2658
	pushl	%ebp
	.cfi_def_cfa_offset 8
	.cfi_offset 5, -8
	movl	%esp, %ebp
	.cfi_def_cfa_register 5
	subl	$40, %esp
	movl	%ecx, -12(%ebp)
	movl	-12(%ebp), %eax
	movl	%eax, %ecx
	call	__ZNSt12_Vector_baseI8heapNodeSaIS0_EE19_M_get_Tp_allocatorEv
	movl	%eax, %ecx
	movl	-12(%ebp), %eax
	movl	4(%eax), %edx
	movl	-12(%ebp), %eax
	movl	(%eax), %eax
	movl	%ecx, 8(%esp)
	movl	%edx, 4(%esp)
	movl	%eax, (%esp)
	call	__ZSt8_DestroyIP8heapNodeS0_EvT_S2_RSaIT0_E
	movl	-12(%ebp), %eax
	movl	%eax, %ecx
	call	__ZNSt12_Vector_baseI8heapNodeSaIS0_EED2Ev
	nop
	leave
	.cfi_restore 5
	.cfi_def_cfa 4, 4
	ret
	.cfi_endproc
LFE2658:
	.section	.gcc_except_table,"w"
LLSDA2658:
	.byte	0xff
	.byte	0xff
	.byte	0x1
	.uleb128 LLSDACSE2658-LLSDACSB2658
LLSDACSB2658:
LLSDACSE2658:
	.section	.text$_ZNSt6vectorI8heapNodeSaIS0_EED1Ev,"x"
	.linkonce discard
	.section	.text$_ZNSt6vectorI8heapNodeSaIS0_EEixEj,"x"
	.linkonce discard
	.align 2
	.globl	__ZNSt6vectorI8heapNodeSaIS0_EEixEj
	.def	__ZNSt6vectorI8heapNodeSaIS0_EEixEj;	.scl	2;	.type	32;	.endef
__ZNSt6vectorI8heapNodeSaIS0_EEixEj:
LFB2663:
	.cfi_startproc
	pushl	%ebp
	.cfi_def_cfa_offset 8
	.cfi_offset 5, -8
	movl	%esp, %ebp
	.cfi_def_cfa_register 5
	subl	$4, %esp
	movl	%ecx, -4(%ebp)
	movl	-4(%ebp), %eax
	movl	(%eax), %eax
	movl	8(%ebp), %edx
	sall	$5, %edx
	addl	%edx, %eax
	leave
	.cfi_restore 5
	.cfi_def_cfa 4, 4
	ret	$4
	.cfi_endproc
LFE2663:
	.section	.text$_ZNKSt6vectorI8heapNodeSaIS0_EE4sizeEv,"x"
	.linkonce discard
	.align 2
	.globl	__ZNKSt6vectorI8heapNodeSaIS0_EE4sizeEv
	.def	__ZNKSt6vectorI8heapNodeSaIS0_EE4sizeEv;	.scl	2;	.type	32;	.endef
__ZNKSt6vectorI8heapNodeSaIS0_EE4sizeEv:
LFB2664:
	.cfi_startproc
	pushl	%ebp
	.cfi_def_cfa_offset 8
	.cfi_offset 5, -8
	movl	%esp, %ebp
	.cfi_def_cfa_register 5
	subl	$4, %esp
	movl	%ecx, -4(%ebp)
	movl	-4(%ebp), %eax
	movl	4(%eax), %eax
	movl	%eax, %edx
	movl	-4(%ebp), %eax
	movl	(%eax), %eax
	subl	%eax, %edx
	movl	%edx, %eax
	sarl	$5, %eax
	leave
	.cfi_restore 5
	.cfi_def_cfa 4, 4
	ret
	.cfi_endproc
LFE2664:
	.section	.text$_ZNSt6vectorI8heapNodeSaIS0_EE9push_backERKS0_,"x"
	.linkonce discard
	.align 2
	.globl	__ZNSt6vectorI8heapNodeSaIS0_EE9push_backERKS0_
	.def	__ZNSt6vectorI8heapNodeSaIS0_EE9push_backERKS0_;	.scl	2;	.type	32;	.endef
__ZNSt6vectorI8heapNodeSaIS0_EE9push_backERKS0_:
LFB2665:
	.cfi_startproc
	pushl	%ebp
	.cfi_def_cfa_offset 8
	.cfi_offset 5, -8
	movl	%esp, %ebp
	.cfi_def_cfa_register 5
	subl	$40, %esp
	movl	%ecx, -12(%ebp)
	movl	-12(%ebp), %eax
	movl	4(%eax), %edx
	movl	-12(%ebp), %eax
	movl	8(%eax), %eax
	cmpl	%eax, %edx
	je	L526
	movl	-12(%ebp), %eax
	movl	4(%eax), %edx
	movl	-12(%ebp), %eax
	movl	8(%ebp), %ecx
	movl	%ecx, 8(%esp)
	movl	%edx, 4(%esp)
	movl	%eax, (%esp)
	call	__ZNSt16allocator_traitsISaI8heapNodeEE9constructIS0_JRKS0_EEEvRS1_PT_DpOT0_
	movl	-12(%ebp), %eax
	movl	4(%eax), %eax
	leal	32(%eax), %edx
	movl	-12(%ebp), %eax
	movl	%edx, 4(%eax)
	jmp	L528
L526:
	movl	-12(%ebp), %eax
	movl	8(%ebp), %edx
	movl	%edx, (%esp)
	movl	%eax, %ecx
	call	__ZNSt6vectorI8heapNodeSaIS0_EE19_M_emplace_back_auxIJRKS0_EEEvDpOT_
	subl	$4, %esp
L528:
	nop
	leave
	.cfi_restore 5
	.cfi_def_cfa 4, 4
	ret	$4
	.cfi_endproc
LFE2665:
	.section	.text$_ZSteqIcEN9__gnu_cxx11__enable_ifIXsrSt9__is_charIT_E7__valueEbE6__typeERKNSt7__cxx1112basic_stringIS3_St11char_traitsIS3_ESaIS3_EEESE_,"x"
	.linkonce discard
	.globl	__ZSteqIcEN9__gnu_cxx11__enable_ifIXsrSt9__is_charIT_E7__valueEbE6__typeERKNSt7__cxx1112basic_stringIS3_St11char_traitsIS3_ESaIS3_EEESE_
	.def	__ZSteqIcEN9__gnu_cxx11__enable_ifIXsrSt9__is_charIT_E7__valueEbE6__typeERKNSt7__cxx1112basic_stringIS3_St11char_traitsIS3_ESaIS3_EEESE_;	.scl	2;	.type	32;	.endef
__ZSteqIcEN9__gnu_cxx11__enable_ifIXsrSt9__is_charIT_E7__valueEbE6__typeERKNSt7__cxx1112basic_stringIS3_St11char_traitsIS3_ESaIS3_EEESE_:
LFB2667:
	.cfi_startproc
	pushl	%ebp
	.cfi_def_cfa_offset 8
	.cfi_offset 5, -8
	movl	%esp, %ebp
	.cfi_def_cfa_register 5
	pushl	%esi
	pushl	%ebx
	subl	$16, %esp
	.cfi_offset 6, -12
	.cfi_offset 3, -16
	movl	8(%ebp), %ecx
	call	__ZNKSt7__cxx1112basic_stringIcSt11char_traitsIcESaIcEE4sizeEv
	movl	%eax, %ebx
	movl	12(%ebp), %eax
	movl	%eax, %ecx
	call	__ZNKSt7__cxx1112basic_stringIcSt11char_traitsIcESaIcEE4sizeEv
	cmpl	%eax, %ebx
	jne	L530
	movl	8(%ebp), %ecx
	call	__ZNKSt7__cxx1112basic_stringIcSt11char_traitsIcESaIcEE4sizeEv
	movl	%eax, %esi
	movl	12(%ebp), %eax
	movl	%eax, %ecx
	call	__ZNKSt7__cxx1112basic_stringIcSt11char_traitsIcESaIcEE4dataEv
	movl	%eax, %ebx
	movl	8(%ebp), %ecx
	call	__ZNKSt7__cxx1112basic_stringIcSt11char_traitsIcESaIcEE4dataEv
	movl	%esi, 8(%esp)
	movl	%ebx, 4(%esp)
	movl	%eax, (%esp)
	call	__ZNSt11char_traitsIcE7compareEPKcS2_j
	testl	%eax, %eax
	jne	L530
	movl	$1, %eax
	jmp	L531
L530:
	movl	$0, %eax
L531:
	addl	$16, %esp
	popl	%ebx
	.cfi_restore 3
	popl	%esi
	.cfi_restore 6
	popl	%ebp
	.cfi_restore 5
	.cfi_def_cfa 4, 4
	ret
	.cfi_endproc
LFE2667:
	.section	.text$_ZStneIcSt11char_traitsIcESaIcEEbRKNSt7__cxx1112basic_stringIT_T0_T1_EEPKS5_,"x"
	.linkonce discard
	.globl	__ZStneIcSt11char_traitsIcESaIcEEbRKNSt7__cxx1112basic_stringIT_T0_T1_EEPKS5_
	.def	__ZStneIcSt11char_traitsIcESaIcEEbRKNSt7__cxx1112basic_stringIT_T0_T1_EEPKS5_;	.scl	2;	.type	32;	.endef
__ZStneIcSt11char_traitsIcESaIcEEbRKNSt7__cxx1112basic_stringIT_T0_T1_EEPKS5_:
LFB2671:
	.cfi_startproc
	pushl	%ebp
	.cfi_def_cfa_offset 8
	.cfi_offset 5, -8
	movl	%esp, %ebp
	.cfi_def_cfa_register 5
	subl	$24, %esp
	movl	12(%ebp), %eax
	movl	%eax, 4(%esp)
	movl	8(%ebp), %eax
	movl	%eax, (%esp)
	call	__ZSteqIcSt11char_traitsIcESaIcEEbRKNSt7__cxx1112basic_stringIT_T0_T1_EEPKS5_
	xorl	$1, %eax
	leave
	.cfi_restore 5
	.cfi_def_cfa 4, 4
	ret
	.cfi_endproc
LFE2671:
	.section	.text$_ZStneIcSt11char_traitsIcESaIcEEbRKNSt7__cxx1112basic_stringIT_T0_T1_EESA_,"x"
	.linkonce discard
	.globl	__ZStneIcSt11char_traitsIcESaIcEEbRKNSt7__cxx1112basic_stringIT_T0_T1_EESA_
	.def	__ZStneIcSt11char_traitsIcESaIcEEbRKNSt7__cxx1112basic_stringIT_T0_T1_EESA_;	.scl	2;	.type	32;	.endef
__ZStneIcSt11char_traitsIcESaIcEEbRKNSt7__cxx1112basic_stringIT_T0_T1_EESA_:
LFB2678:
	.cfi_startproc
	pushl	%ebp
	.cfi_def_cfa_offset 8
	.cfi_offset 5, -8
	movl	%esp, %ebp
	.cfi_def_cfa_register 5
	subl	$24, %esp
	movl	12(%ebp), %eax
	movl	%eax, 4(%esp)
	movl	8(%ebp), %eax
	movl	%eax, (%esp)
	call	__ZSteqIcEN9__gnu_cxx11__enable_ifIXsrSt9__is_charIT_E7__valueEbE6__typeERKNSt7__cxx1112basic_stringIS3_St11char_traitsIS3_ESaIS3_EEESE_
	xorl	$1, %eax
	leave
	.cfi_restore 5
	.cfi_def_cfa 4, 4
	ret
	.cfi_endproc
LFE2678:
	.section	.text$_ZNKSt6vectorINSt7__cxx1112basic_stringIcSt11char_traitsIcESaIcEEESaIS5_EE4sizeEv,"x"
	.linkonce discard
	.align 2
	.globl	__ZNKSt6vectorINSt7__cxx1112basic_stringIcSt11char_traitsIcESaIcEEESaIS5_EE4sizeEv
	.def	__ZNKSt6vectorINSt7__cxx1112basic_stringIcSt11char_traitsIcESaIcEEESaIS5_EE4sizeEv;	.scl	2;	.type	32;	.endef
__ZNKSt6vectorINSt7__cxx1112basic_stringIcSt11char_traitsIcESaIcEEESaIS5_EE4sizeEv:
LFB2679:
	.cfi_startproc
	pushl	%ebp
	.cfi_def_cfa_offset 8
	.cfi_offset 5, -8
	movl	%esp, %ebp
	.cfi_def_cfa_register 5
	subl	$4, %esp
	movl	%ecx, -4(%ebp)
	movl	-4(%ebp), %eax
	movl	4(%eax), %eax
	movl	%eax, %edx
	movl	-4(%ebp), %eax
	movl	(%eax), %eax
	subl	%eax, %edx
	movl	%edx, %eax
	sarl	$3, %eax
	imull	$-1431655765, %eax, %eax
	leave
	.cfi_restore 5
	.cfi_def_cfa 4, 4
	ret
	.cfi_endproc
LFE2679:
	.section	.text$_ZNSt6vectorINSt7__cxx1112basic_stringIcSt11char_traitsIcESaIcEEESaIS5_EEixEj,"x"
	.linkonce discard
	.align 2
	.globl	__ZNSt6vectorINSt7__cxx1112basic_stringIcSt11char_traitsIcESaIcEEESaIS5_EEixEj
	.def	__ZNSt6vectorINSt7__cxx1112basic_stringIcSt11char_traitsIcESaIcEEESaIS5_EEixEj;	.scl	2;	.type	32;	.endef
__ZNSt6vectorINSt7__cxx1112basic_stringIcSt11char_traitsIcESaIcEEESaIS5_EEixEj:
LFB2680:
	.cfi_startproc
	pushl	%ebp
	.cfi_def_cfa_offset 8
	.cfi_offset 5, -8
	movl	%esp, %ebp
	.cfi_def_cfa_register 5
	subl	$4, %esp
	movl	%ecx, -4(%ebp)
	movl	-4(%ebp), %eax
	movl	(%eax), %ecx
	movl	8(%ebp), %edx
	movl	%edx, %eax
	addl	%eax, %eax
	addl	%edx, %eax
	sall	$3, %eax
	addl	%ecx, %eax
	leave
	.cfi_restore 5
	.cfi_def_cfa 4, 4
	ret	$4
	.cfi_endproc
LFE2680:
	.section	.text$_ZSteqIcSt11char_traitsIcESaIcEEbRKNSt7__cxx1112basic_stringIT_T0_T1_EEPKS5_,"x"
	.linkonce discard
	.globl	__ZSteqIcSt11char_traitsIcESaIcEEbRKNSt7__cxx1112basic_stringIT_T0_T1_EEPKS5_
	.def	__ZSteqIcSt11char_traitsIcESaIcEEbRKNSt7__cxx1112basic_stringIT_T0_T1_EEPKS5_;	.scl	2;	.type	32;	.endef
__ZSteqIcSt11char_traitsIcESaIcEEbRKNSt7__cxx1112basic_stringIT_T0_T1_EEPKS5_:
LFB2682:
	.cfi_startproc
	pushl	%ebp
	.cfi_def_cfa_offset 8
	.cfi_offset 5, -8
	movl	%esp, %ebp
	.cfi_def_cfa_register 5
	subl	$24, %esp
	movl	12(%ebp), %eax
	movl	%eax, (%esp)
	movl	8(%ebp), %ecx
	call	__ZNKSt7__cxx1112basic_stringIcSt11char_traitsIcESaIcEE7compareEPKc
	subl	$4, %esp
	testl	%eax, %eax
	sete	%al
	leave
	.cfi_restore 5
	.cfi_def_cfa 4, 4
	ret
	.cfi_endproc
LFE2682:
	.section	.text$_ZNSt6vectorINSt7__cxx1112basic_stringIcSt11char_traitsIcESaIcEEESaIS5_EEC1ERKS7_,"x"
	.linkonce discard
	.align 2
	.globl	__ZNSt6vectorINSt7__cxx1112basic_stringIcSt11char_traitsIcESaIcEEESaIS5_EEC1ERKS7_
	.def	__ZNSt6vectorINSt7__cxx1112basic_stringIcSt11char_traitsIcESaIcEEESaIS5_EEC1ERKS7_;	.scl	2;	.type	32;	.endef
__ZNSt6vectorINSt7__cxx1112basic_stringIcSt11char_traitsIcESaIcEEESaIS5_EEC1ERKS7_:
LFB2686:
	.cfi_startproc
	.cfi_personality 0,___gxx_personality_v0
	.cfi_lsda 0,LLSDA2686
	pushl	%ebp
	.cfi_def_cfa_offset 8
	.cfi_offset 5, -8
	movl	%esp, %ebp
	.cfi_def_cfa_register 5
	pushl	%edi
	pushl	%esi
	pushl	%ebx
	subl	$60, %esp
	.cfi_offset 7, -12
	.cfi_offset 6, -16
	.cfi_offset 3, -20
	movl	%ecx, -44(%ebp)
	movl	8(%ebp), %eax
	movl	%eax, %ecx
	call	__ZNKSt12_Vector_baseINSt7__cxx1112basic_stringIcSt11char_traitsIcESaIcEEESaIS5_EE19_M_get_Tp_allocatorEv
	movl	%eax, %edx
	leal	-25(%ebp), %eax
	movl	%edx, 4(%esp)
	movl	%eax, (%esp)
LEHB99:
	call	__ZN9__gnu_cxx14__alloc_traitsISaINSt7__cxx1112basic_stringIcSt11char_traitsIcESaIcEEEEE17_S_select_on_copyERKS7_
LEHE99:
	movl	8(%ebp), %ecx
	call	__ZNKSt6vectorINSt7__cxx1112basic_stringIcSt11char_traitsIcESaIcEEESaIS5_EE4sizeEv
	movl	%eax, %ecx
	movl	-44(%ebp), %eax
	leal	-25(%ebp), %edx
	movl	%edx, 4(%esp)
	movl	%ecx, (%esp)
	movl	%eax, %ecx
LEHB100:
	call	__ZNSt12_Vector_baseINSt7__cxx1112basic_stringIcSt11char_traitsIcESaIcEEESaIS5_EEC2EjRKS6_
LEHE100:
	subl	$8, %esp
	leal	-25(%ebp), %eax
	movl	%eax, %ecx
	call	__ZNSaINSt7__cxx1112basic_stringIcSt11char_traitsIcESaIcEEEED1Ev
	movl	-44(%ebp), %eax
	movl	%eax, %ecx
	call	__ZNSt12_Vector_baseINSt7__cxx1112basic_stringIcSt11char_traitsIcESaIcEEESaIS5_EE19_M_get_Tp_allocatorEv
	movl	%eax, %edi
	movl	-44(%ebp), %eax
	movl	(%eax), %ebx
	movl	8(%ebp), %ecx
	call	__ZNKSt6vectorINSt7__cxx1112basic_stringIcSt11char_traitsIcESaIcEEESaIS5_EE3endEv
	movl	%eax, %esi
	movl	8(%ebp), %ecx
	call	__ZNKSt6vectorINSt7__cxx1112basic_stringIcSt11char_traitsIcESaIcEEESaIS5_EE5beginEv
	movl	%edi, 12(%esp)
	movl	%ebx, 8(%esp)
	movl	%esi, 4(%esp)
	movl	%eax, (%esp)
LEHB101:
	call	__ZSt22__uninitialized_copy_aIN9__gnu_cxx17__normal_iteratorIPKNSt7__cxx1112basic_stringIcSt11char_traitsIcESaIcEEESt6vectorIS7_SaIS7_EEEEPS7_S7_ET0_T_SG_SF_RSaIT1_E
LEHE101:
	movl	%eax, %edx
	movl	-44(%ebp), %eax
	movl	%edx, 4(%eax)
	jmp	L548
L546:
	movl	%eax, %ebx
	leal	-25(%ebp), %eax
	movl	%eax, %ecx
	call	__ZNSaINSt7__cxx1112basic_stringIcSt11char_traitsIcESaIcEEEED1Ev
	movl	%ebx, %eax
	movl	%eax, (%esp)
LEHB102:
	call	__Unwind_Resume
L547:
	movl	%eax, %ebx
	movl	-44(%ebp), %eax
	movl	%eax, %ecx
	call	__ZNSt12_Vector_baseINSt7__cxx1112basic_stringIcSt11char_traitsIcESaIcEEESaIS5_EED2Ev
	movl	%ebx, %eax
	movl	%eax, (%esp)
	call	__Unwind_Resume
LEHE102:
L548:
	leal	-12(%ebp), %esp
	popl	%ebx
	.cfi_restore 3
	popl	%esi
	.cfi_restore 6
	popl	%edi
	.cfi_restore 7
	popl	%ebp
	.cfi_restore 5
	.cfi_def_cfa 4, 4
	ret	$4
	.cfi_endproc
LFE2686:
	.section	.gcc_except_table,"w"
LLSDA2686:
	.byte	0xff
	.byte	0xff
	.byte	0x1
	.uleb128 LLSDACSE2686-LLSDACSB2686
LLSDACSB2686:
	.uleb128 LEHB99-LFB2686
	.uleb128 LEHE99-LEHB99
	.uleb128 0
	.uleb128 0
	.uleb128 LEHB100-LFB2686
	.uleb128 LEHE100-LEHB100
	.uleb128 L546-LFB2686
	.uleb128 0
	.uleb128 LEHB101-LFB2686
	.uleb128 LEHE101-LEHB101
	.uleb128 L547-LFB2686
	.uleb128 0
	.uleb128 LEHB102-LFB2686
	.uleb128 LEHE102-LEHB102
	.uleb128 0
	.uleb128 0
LLSDACSE2686:
	.section	.text$_ZNSt6vectorINSt7__cxx1112basic_stringIcSt11char_traitsIcESaIcEEESaIS5_EEC1ERKS7_,"x"
	.linkonce discard
	.section	.text$_ZNSt6vectorINSt7__cxx1112basic_stringIcSt11char_traitsIcESaIcEEESaIS5_EED1Ev,"x"
	.linkonce discard
	.align 2
	.globl	__ZNSt6vectorINSt7__cxx1112basic_stringIcSt11char_traitsIcESaIcEEESaIS5_EED1Ev
	.def	__ZNSt6vectorINSt7__cxx1112basic_stringIcSt11char_traitsIcESaIcEEESaIS5_EED1Ev;	.scl	2;	.type	32;	.endef
__ZNSt6vectorINSt7__cxx1112basic_stringIcSt11char_traitsIcESaIcEEESaIS5_EED1Ev:
LFB2689:
	.cfi_startproc
	.cfi_personality 0,___gxx_personality_v0
	.cfi_lsda 0,LLSDA2689
	pushl	%ebp
	.cfi_def_cfa_offset 8
	.cfi_offset 5, -8
	movl	%esp, %ebp
	.cfi_def_cfa_register 5
	subl	$40, %esp
	movl	%ecx, -12(%ebp)
	movl	-12(%ebp), %eax
	movl	%eax, %ecx
	call	__ZNSt12_Vector_baseINSt7__cxx1112basic_stringIcSt11char_traitsIcESaIcEEESaIS5_EE19_M_get_Tp_allocatorEv
	movl	%eax, %ecx
	movl	-12(%ebp), %eax
	movl	4(%eax), %edx
	movl	-12(%ebp), %eax
	movl	(%eax), %eax
	movl	%ecx, 8(%esp)
	movl	%edx, 4(%esp)
	movl	%eax, (%esp)
	call	__ZSt8_DestroyIPNSt7__cxx1112basic_stringIcSt11char_traitsIcESaIcEEES5_EvT_S7_RSaIT0_E
	movl	-12(%ebp), %eax
	movl	%eax, %ecx
	call	__ZNSt12_Vector_baseINSt7__cxx1112basic_stringIcSt11char_traitsIcESaIcEEESaIS5_EED2Ev
	nop
	leave
	.cfi_restore 5
	.cfi_def_cfa 4, 4
	ret
	.cfi_endproc
LFE2689:
	.section	.gcc_except_table,"w"
LLSDA2689:
	.byte	0xff
	.byte	0xff
	.byte	0x1
	.uleb128 LLSDACSE2689-LLSDACSB2689
LLSDACSB2689:
LLSDACSE2689:
	.section	.text$_ZNSt6vectorINSt7__cxx1112basic_stringIcSt11char_traitsIcESaIcEEESaIS5_EED1Ev,"x"
	.linkonce discard
	.section	.text$_ZNSt6vectorINSt7__cxx1112basic_stringIcSt11char_traitsIcESaIcEEESaIS5_EEC1Ev,"x"
	.linkonce discard
	.align 2
	.globl	__ZNSt6vectorINSt7__cxx1112basic_stringIcSt11char_traitsIcESaIcEEESaIS5_EEC1Ev
	.def	__ZNSt6vectorINSt7__cxx1112basic_stringIcSt11char_traitsIcESaIcEEESaIS5_EEC1Ev;	.scl	2;	.type	32;	.endef
__ZNSt6vectorINSt7__cxx1112basic_stringIcSt11char_traitsIcESaIcEEESaIS5_EEC1Ev:
LFB2699:
	.cfi_startproc
	.cfi_personality 0,___gxx_personality_v0
	.cfi_lsda 0,LLSDA2699
	pushl	%ebp
	.cfi_def_cfa_offset 8
	.cfi_offset 5, -8
	movl	%esp, %ebp
	.cfi_def_cfa_register 5
	subl	$24, %esp
	movl	%ecx, -12(%ebp)
	movl	-12(%ebp), %eax
	movl	%eax, %ecx
	call	__ZNSt12_Vector_baseINSt7__cxx1112basic_stringIcSt11char_traitsIcESaIcEEESaIS5_EEC2Ev
	nop
	leave
	.cfi_restore 5
	.cfi_def_cfa 4, 4
	ret
	.cfi_endproc
LFE2699:
	.section	.gcc_except_table,"w"
LLSDA2699:
	.byte	0xff
	.byte	0xff
	.byte	0x1
	.uleb128 LLSDACSE2699-LLSDACSB2699
LLSDACSB2699:
LLSDACSE2699:
	.section	.text$_ZNSt6vectorINSt7__cxx1112basic_stringIcSt11char_traitsIcESaIcEEESaIS5_EEC1Ev,"x"
	.linkonce discard
	.section	.text$_ZNSt6vectorINSt7__cxx1112basic_stringIcSt11char_traitsIcESaIcEEESaIS5_EE9push_backERKS5_,"x"
	.linkonce discard
	.align 2
	.globl	__ZNSt6vectorINSt7__cxx1112basic_stringIcSt11char_traitsIcESaIcEEESaIS5_EE9push_backERKS5_
	.def	__ZNSt6vectorINSt7__cxx1112basic_stringIcSt11char_traitsIcESaIcEEESaIS5_EE9push_backERKS5_;	.scl	2;	.type	32;	.endef
__ZNSt6vectorINSt7__cxx1112basic_stringIcSt11char_traitsIcESaIcEEESaIS5_EE9push_backERKS5_:
LFB2722:
	.cfi_startproc
	pushl	%ebp
	.cfi_def_cfa_offset 8
	.cfi_offset 5, -8
	movl	%esp, %ebp
	.cfi_def_cfa_register 5
	subl	$40, %esp
	movl	%ecx, -12(%ebp)
	movl	-12(%ebp), %eax
	movl	4(%eax), %edx
	movl	-12(%ebp), %eax
	movl	8(%eax), %eax
	cmpl	%eax, %edx
	je	L552
	movl	-12(%ebp), %eax
	movl	4(%eax), %edx
	movl	-12(%ebp), %eax
	movl	8(%ebp), %ecx
	movl	%ecx, 8(%esp)
	movl	%edx, 4(%esp)
	movl	%eax, (%esp)
	call	__ZNSt16allocator_traitsISaINSt7__cxx1112basic_stringIcSt11char_traitsIcESaIcEEEEE9constructIS5_JRKS5_EEEvRS6_PT_DpOT0_
	movl	-12(%ebp), %eax
	movl	4(%eax), %eax
	leal	24(%eax), %edx
	movl	-12(%ebp), %eax
	movl	%edx, 4(%eax)
	jmp	L554
L552:
	movl	-12(%ebp), %eax
	movl	8(%ebp), %edx
	movl	%edx, (%esp)
	movl	%eax, %ecx
	call	__ZNSt6vectorINSt7__cxx1112basic_stringIcSt11char_traitsIcESaIcEEESaIS5_EE19_M_emplace_back_auxIJRKS5_EEEvDpOT_
	subl	$4, %esp
L554:
	nop
	leave
	.cfi_restore 5
	.cfi_def_cfa 4, 4
	ret	$4
	.cfi_endproc
LFE2722:
	.section	.text$_ZNSt12_Vector_baseI8heapNodeSaIS0_EE12_Vector_implD1Ev,"x"
	.linkonce discard
	.align 2
	.globl	__ZNSt12_Vector_baseI8heapNodeSaIS0_EE12_Vector_implD1Ev
	.def	__ZNSt12_Vector_baseI8heapNodeSaIS0_EE12_Vector_implD1Ev;	.scl	2;	.type	32;	.endef
__ZNSt12_Vector_baseI8heapNodeSaIS0_EE12_Vector_implD1Ev:
LFB2814:
	.cfi_startproc
	pushl	%ebp
	.cfi_def_cfa_offset 8
	.cfi_offset 5, -8
	movl	%esp, %ebp
	.cfi_def_cfa_register 5
	subl	$24, %esp
	movl	%ecx, -12(%ebp)
	movl	-12(%ebp), %eax
	movl	%eax, %ecx
	call	__ZNSaI8heapNodeED2Ev
	nop
	leave
	.cfi_restore 5
	.cfi_def_cfa 4, 4
	ret
	.cfi_endproc
LFE2814:
	.section	.text$_ZNSt12_Vector_baseI8heapNodeSaIS0_EEC2Ev,"x"
	.linkonce discard
	.align 2
	.globl	__ZNSt12_Vector_baseI8heapNodeSaIS0_EEC2Ev
	.def	__ZNSt12_Vector_baseI8heapNodeSaIS0_EEC2Ev;	.scl	2;	.type	32;	.endef
__ZNSt12_Vector_baseI8heapNodeSaIS0_EEC2Ev:
LFB2815:
	.cfi_startproc
	pushl	%ebp
	.cfi_def_cfa_offset 8
	.cfi_offset 5, -8
	movl	%esp, %ebp
	.cfi_def_cfa_register 5
	subl	$24, %esp
	movl	%ecx, -12(%ebp)
	movl	-12(%ebp), %eax
	movl	%eax, %ecx
	call	__ZNSt12_Vector_baseI8heapNodeSaIS0_EE12_Vector_implC1Ev
	nop
	leave
	.cfi_restore 5
	.cfi_def_cfa 4, 4
	ret
	.cfi_endproc
LFE2815:
	.section	.text$_ZNSt12_Vector_baseI8heapNodeSaIS0_EED2Ev,"x"
	.linkonce discard
	.align 2
	.globl	__ZNSt12_Vector_baseI8heapNodeSaIS0_EED2Ev
	.def	__ZNSt12_Vector_baseI8heapNodeSaIS0_EED2Ev;	.scl	2;	.type	32;	.endef
__ZNSt12_Vector_baseI8heapNodeSaIS0_EED2Ev:
LFB2818:
	.cfi_startproc
	.cfi_personality 0,___gxx_personality_v0
	.cfi_lsda 0,LLSDA2818
	pushl	%ebp
	.cfi_def_cfa_offset 8
	.cfi_offset 5, -8
	movl	%esp, %ebp
	.cfi_def_cfa_register 5
	subl	$40, %esp
	movl	%ecx, -12(%ebp)
	movl	-12(%ebp), %eax
	movl	8(%eax), %eax
	movl	%eax, %edx
	movl	-12(%ebp), %eax
	movl	(%eax), %eax
	subl	%eax, %edx
	movl	%edx, %eax
	sarl	$5, %eax
	movl	%eax, %ecx
	movl	-12(%ebp), %eax
	movl	(%eax), %edx
	movl	-12(%ebp), %eax
	movl	%ecx, 4(%esp)
	movl	%edx, (%esp)
	movl	%eax, %ecx
	call	__ZNSt12_Vector_baseI8heapNodeSaIS0_EE13_M_deallocateEPS0_j
	subl	$8, %esp
	movl	-12(%ebp), %eax
	movl	%eax, %ecx
	call	__ZNSt12_Vector_baseI8heapNodeSaIS0_EE12_Vector_implD1Ev
	nop
	leave
	.cfi_restore 5
	.cfi_def_cfa 4, 4
	ret
	.cfi_endproc
LFE2818:
	.section	.gcc_except_table,"w"
LLSDA2818:
	.byte	0xff
	.byte	0xff
	.byte	0x1
	.uleb128 LLSDACSE2818-LLSDACSB2818
LLSDACSB2818:
LLSDACSE2818:
	.section	.text$_ZNSt12_Vector_baseI8heapNodeSaIS0_EED2Ev,"x"
	.linkonce discard
	.section	.text$_ZNSt12_Vector_baseI8heapNodeSaIS0_EE19_M_get_Tp_allocatorEv,"x"
	.linkonce discard
	.align 2
	.globl	__ZNSt12_Vector_baseI8heapNodeSaIS0_EE19_M_get_Tp_allocatorEv
	.def	__ZNSt12_Vector_baseI8heapNodeSaIS0_EE19_M_get_Tp_allocatorEv;	.scl	2;	.type	32;	.endef
__ZNSt12_Vector_baseI8heapNodeSaIS0_EE19_M_get_Tp_allocatorEv:
LFB2820:
	.cfi_startproc
	pushl	%ebp
	.cfi_def_cfa_offset 8
	.cfi_offset 5, -8
	movl	%esp, %ebp
	.cfi_def_cfa_register 5
	subl	$4, %esp
	movl	%ecx, -4(%ebp)
	movl	-4(%ebp), %eax
	leave
	.cfi_restore 5
	.cfi_def_cfa 4, 4
	ret
	.cfi_endproc
LFE2820:
	.section	.text$_ZSt8_DestroyIP8heapNodeS0_EvT_S2_RSaIT0_E,"x"
	.linkonce discard
	.globl	__ZSt8_DestroyIP8heapNodeS0_EvT_S2_RSaIT0_E
	.def	__ZSt8_DestroyIP8heapNodeS0_EvT_S2_RSaIT0_E;	.scl	2;	.type	32;	.endef
__ZSt8_DestroyIP8heapNodeS0_EvT_S2_RSaIT0_E:
LFB2821:
	.cfi_startproc
	pushl	%ebp
	.cfi_def_cfa_offset 8
	.cfi_offset 5, -8
	movl	%esp, %ebp
	.cfi_def_cfa_register 5
	subl	$24, %esp
	movl	12(%ebp), %eax
	movl	%eax, 4(%esp)
	movl	8(%ebp), %eax
	movl	%eax, (%esp)
	call	__ZSt8_DestroyIP8heapNodeEvT_S2_
	nop
	leave
	.cfi_restore 5
	.cfi_def_cfa 4, 4
	ret
	.cfi_endproc
LFE2821:
	.section	.text$_ZSt7forwardIRK8heapNodeEOT_RNSt16remove_referenceIS3_E4typeE,"x"
	.linkonce discard
	.globl	__ZSt7forwardIRK8heapNodeEOT_RNSt16remove_referenceIS3_E4typeE
	.def	__ZSt7forwardIRK8heapNodeEOT_RNSt16remove_referenceIS3_E4typeE;	.scl	2;	.type	32;	.endef
__ZSt7forwardIRK8heapNodeEOT_RNSt16remove_referenceIS3_E4typeE:
LFB2826:
	.cfi_startproc
	pushl	%ebp
	.cfi_def_cfa_offset 8
	.cfi_offset 5, -8
	movl	%esp, %ebp
	.cfi_def_cfa_register 5
	movl	8(%ebp), %eax
	popl	%ebp
	.cfi_restore 5
	.cfi_def_cfa 4, 4
	ret
	.cfi_endproc
LFE2826:
	.section	.text$_ZNSt16allocator_traitsISaI8heapNodeEE9constructIS0_JRKS0_EEEvRS1_PT_DpOT0_,"x"
	.linkonce discard
	.globl	__ZNSt16allocator_traitsISaI8heapNodeEE9constructIS0_JRKS0_EEEvRS1_PT_DpOT0_
	.def	__ZNSt16allocator_traitsISaI8heapNodeEE9constructIS0_JRKS0_EEEvRS1_PT_DpOT0_;	.scl	2;	.type	32;	.endef
__ZNSt16allocator_traitsISaI8heapNodeEE9constructIS0_JRKS0_EEEvRS1_PT_DpOT0_:
LFB2825:
	.cfi_startproc
	pushl	%ebp
	.cfi_def_cfa_offset 8
	.cfi_offset 5, -8
	movl	%esp, %ebp
	.cfi_def_cfa_register 5
	subl	$24, %esp
	movl	16(%ebp), %eax
	movl	%eax, (%esp)
	call	__ZSt7forwardIRK8heapNodeEOT_RNSt16remove_referenceIS3_E4typeE
	movl	%eax, 4(%esp)
	movl	12(%ebp), %eax
	movl	%eax, (%esp)
	movl	8(%ebp), %ecx
	call	__ZN9__gnu_cxx13new_allocatorI8heapNodeE9constructIS1_JRKS1_EEEvPT_DpOT0_
	subl	$8, %esp
	nop
	leave
	.cfi_restore 5
	.cfi_def_cfa 4, 4
	ret
	.cfi_endproc
LFE2825:
	.section .rdata,"dr"
LC79:
	.ascii "vector::_M_emplace_back_aux\0"
	.section	.text$_ZNSt6vectorI8heapNodeSaIS0_EE19_M_emplace_back_auxIJRKS0_EEEvDpOT_,"x"
	.linkonce discard
	.align 2
	.globl	__ZNSt6vectorI8heapNodeSaIS0_EE19_M_emplace_back_auxIJRKS0_EEEvDpOT_
	.def	__ZNSt6vectorI8heapNodeSaIS0_EE19_M_emplace_back_auxIJRKS0_EEEvDpOT_;	.scl	2;	.type	32;	.endef
__ZNSt6vectorI8heapNodeSaIS0_EE19_M_emplace_back_auxIJRKS0_EEEvDpOT_:
LFB2827:
	.cfi_startproc
	.cfi_personality 0,___gxx_personality_v0
	.cfi_lsda 0,LLSDA2827
	pushl	%ebp
	.cfi_def_cfa_offset 8
	.cfi_offset 5, -8
	movl	%esp, %ebp
	.cfi_def_cfa_register 5
	pushl	%ebx
	subl	$52, %esp
	.cfi_offset 3, -12
	movl	%ecx, -28(%ebp)
	movl	-28(%ebp), %eax
	movl	$LC79, 4(%esp)
	movl	$1, (%esp)
	movl	%eax, %ecx
LEHB103:
	call	__ZNKSt6vectorI8heapNodeSaIS0_EE12_M_check_lenEjPKc
	subl	$8, %esp
	movl	%eax, -16(%ebp)
	movl	-28(%ebp), %eax
	movl	-16(%ebp), %edx
	movl	%edx, (%esp)
	movl	%eax, %ecx
	call	__ZNSt12_Vector_baseI8heapNodeSaIS0_EE11_M_allocateEj
LEHE103:
	subl	$4, %esp
	movl	%eax, -20(%ebp)
	movl	-20(%ebp), %eax
	movl	%eax, -12(%ebp)
	movl	8(%ebp), %eax
	movl	%eax, (%esp)
	call	__ZSt7forwardIRK8heapNodeEOT_RNSt16remove_referenceIS3_E4typeE
	movl	%eax, %ebx
	movl	-28(%ebp), %eax
	movl	%eax, %ecx
	call	__ZNKSt6vectorI8heapNodeSaIS0_EE4sizeEv
	sall	$5, %eax
	movl	%eax, %edx
	movl	-20(%ebp), %eax
	addl	%eax, %edx
	movl	-28(%ebp), %eax
	movl	%ebx, 8(%esp)
	movl	%edx, 4(%esp)
	movl	%eax, (%esp)
LEHB104:
	call	__ZNSt16allocator_traitsISaI8heapNodeEE9constructIS0_JRKS0_EEEvRS1_PT_DpOT0_
	movl	$0, -12(%ebp)
	movl	-28(%ebp), %eax
	movl	%eax, %ecx
	call	__ZNSt12_Vector_baseI8heapNodeSaIS0_EE19_M_get_Tp_allocatorEv
	movl	%eax, %ecx
	movl	-28(%ebp), %eax
	movl	4(%eax), %edx
	movl	-28(%ebp), %eax
	movl	(%eax), %eax
	movl	%ecx, 12(%esp)
	movl	-20(%ebp), %ecx
	movl	%ecx, 8(%esp)
	movl	%edx, 4(%esp)
	movl	%eax, (%esp)
	call	__ZSt34__uninitialized_move_if_noexcept_aIP8heapNodeS1_SaIS0_EET0_T_S4_S3_RT1_
LEHE104:
	movl	%eax, -12(%ebp)
	addl	$32, -12(%ebp)
	movl	-28(%ebp), %eax
	movl	%eax, %ecx
	call	__ZNSt12_Vector_baseI8heapNodeSaIS0_EE19_M_get_Tp_allocatorEv
	movl	%eax, %ecx
	movl	-28(%ebp), %eax
	movl	4(%eax), %edx
	movl	-28(%ebp), %eax
	movl	(%eax), %eax
	movl	%ecx, 8(%esp)
	movl	%edx, 4(%esp)
	movl	%eax, (%esp)
LEHB105:
	call	__ZSt8_DestroyIP8heapNodeS0_EvT_S2_RSaIT0_E
	movl	-28(%ebp), %eax
	movl	8(%eax), %eax
	movl	%eax, %edx
	movl	-28(%ebp), %eax
	movl	(%eax), %eax
	subl	%eax, %edx
	movl	%edx, %eax
	sarl	$5, %eax
	movl	%eax, %ecx
	movl	-28(%ebp), %eax
	movl	(%eax), %edx
	movl	-28(%ebp), %eax
	movl	%ecx, 4(%esp)
	movl	%edx, (%esp)
	movl	%eax, %ecx
	call	__ZNSt12_Vector_baseI8heapNodeSaIS0_EE13_M_deallocateEPS0_j
LEHE105:
	subl	$8, %esp
	movl	-28(%ebp), %eax
	movl	-20(%ebp), %edx
	movl	%edx, (%eax)
	movl	-28(%ebp), %eax
	movl	-12(%ebp), %edx
	movl	%edx, 4(%eax)
	movl	-16(%ebp), %eax
	sall	$5, %eax
	movl	%eax, %edx
	movl	-20(%ebp), %eax
	addl	%eax, %edx
	movl	-28(%ebp), %eax
	movl	%edx, 8(%eax)
	jmp	L571
L569:
	movl	%eax, (%esp)
	call	___cxa_begin_catch
	cmpl	$0, -12(%ebp)
	jne	L566
	movl	-28(%ebp), %eax
	movl	%eax, %ecx
	call	__ZNKSt6vectorI8heapNodeSaIS0_EE4sizeEv
	sall	$5, %eax
	movl	%eax, %edx
	movl	-20(%ebp), %eax
	addl	%eax, %edx
	movl	-28(%ebp), %eax
	movl	%edx, 4(%esp)
	movl	%eax, (%esp)
LEHB106:
	call	__ZNSt16allocator_traitsISaI8heapNodeEE7destroyIS0_EEvRS1_PT_
	jmp	L567
L566:
	movl	-28(%ebp), %eax
	movl	%eax, %ecx
	call	__ZNSt12_Vector_baseI8heapNodeSaIS0_EE19_M_get_Tp_allocatorEv
	movl	%eax, 8(%esp)
	movl	-12(%ebp), %eax
	movl	%eax, 4(%esp)
	movl	-20(%ebp), %eax
	movl	%eax, (%esp)
	call	__ZSt8_DestroyIP8heapNodeS0_EvT_S2_RSaIT0_E
L567:
	movl	-28(%ebp), %eax
	movl	-16(%ebp), %edx
	movl	%edx, 4(%esp)
	movl	-20(%ebp), %edx
	movl	%edx, (%esp)
	movl	%eax, %ecx
	call	__ZNSt12_Vector_baseI8heapNodeSaIS0_EE13_M_deallocateEPS0_j
	subl	$8, %esp
	call	___cxa_rethrow
LEHE106:
L570:
	movl	%eax, %ebx
	call	___cxa_end_catch
	movl	%ebx, %eax
	movl	%eax, (%esp)
LEHB107:
	call	__Unwind_Resume
LEHE107:
L571:
	movl	-4(%ebp), %ebx
	leave
	.cfi_restore 5
	.cfi_restore 3
	.cfi_def_cfa 4, 4
	ret	$4
	.cfi_endproc
LFE2827:
	.section	.gcc_except_table,"w"
	.align 4
LLSDA2827:
	.byte	0xff
	.byte	0
	.uleb128 LLSDATT2827-LLSDATTD2827
LLSDATTD2827:
	.byte	0x1
	.uleb128 LLSDACSE2827-LLSDACSB2827
LLSDACSB2827:
	.uleb128 LEHB103-LFB2827
	.uleb128 LEHE103-LEHB103
	.uleb128 0
	.uleb128 0
	.uleb128 LEHB104-LFB2827
	.uleb128 LEHE104-LEHB104
	.uleb128 L569-LFB2827
	.uleb128 0x1
	.uleb128 LEHB105-LFB2827
	.uleb128 LEHE105-LEHB105
	.uleb128 0
	.uleb128 0
	.uleb128 LEHB106-LFB2827
	.uleb128 LEHE106-LEHB106
	.uleb128 L570-LFB2827
	.uleb128 0
	.uleb128 LEHB107-LFB2827
	.uleb128 LEHE107-LEHB107
	.uleb128 0
	.uleb128 0
LLSDACSE2827:
	.byte	0x1
	.byte	0
	.align 4
	.long	0
LLSDATT2827:
	.section	.text$_ZNSt6vectorI8heapNodeSaIS0_EE19_M_emplace_back_auxIJRKS0_EEEvDpOT_,"x"
	.linkonce discard
	.section	.text$_ZN9__gnu_cxx14__alloc_traitsISaINSt7__cxx1112basic_stringIcSt11char_traitsIcESaIcEEEEE17_S_select_on_copyERKS7_,"x"
	.linkonce discard
	.globl	__ZN9__gnu_cxx14__alloc_traitsISaINSt7__cxx1112basic_stringIcSt11char_traitsIcESaIcEEEEE17_S_select_on_copyERKS7_
	.def	__ZN9__gnu_cxx14__alloc_traitsISaINSt7__cxx1112basic_stringIcSt11char_traitsIcESaIcEEEEE17_S_select_on_copyERKS7_;	.scl	2;	.type	32;	.endef
__ZN9__gnu_cxx14__alloc_traitsISaINSt7__cxx1112basic_stringIcSt11char_traitsIcESaIcEEEEE17_S_select_on_copyERKS7_:
LFB2842:
	.cfi_startproc
	pushl	%ebp
	.cfi_def_cfa_offset 8
	.cfi_offset 5, -8
	movl	%esp, %ebp
	.cfi_def_cfa_register 5
	subl	$24, %esp
	movl	8(%ebp), %eax
	movl	12(%ebp), %edx
	movl	%edx, 4(%esp)
	movl	%eax, (%esp)
	call	__ZNSt16allocator_traitsISaINSt7__cxx1112basic_stringIcSt11char_traitsIcESaIcEEEEE37select_on_container_copy_constructionERKS6_
	movl	8(%ebp), %eax
	leave
	.cfi_restore 5
	.cfi_def_cfa 4, 4
	ret
	.cfi_endproc
LFE2842:
	.section	.text$_ZNKSt12_Vector_baseINSt7__cxx1112basic_stringIcSt11char_traitsIcESaIcEEESaIS5_EE19_M_get_Tp_allocatorEv,"x"
	.linkonce discard
	.align 2
	.globl	__ZNKSt12_Vector_baseINSt7__cxx1112basic_stringIcSt11char_traitsIcESaIcEEESaIS5_EE19_M_get_Tp_allocatorEv
	.def	__ZNKSt12_Vector_baseINSt7__cxx1112basic_stringIcSt11char_traitsIcESaIcEEESaIS5_EE19_M_get_Tp_allocatorEv;	.scl	2;	.type	32;	.endef
__ZNKSt12_Vector_baseINSt7__cxx1112basic_stringIcSt11char_traitsIcESaIcEEESaIS5_EE19_M_get_Tp_allocatorEv:
LFB2843:
	.cfi_startproc
	pushl	%ebp
	.cfi_def_cfa_offset 8
	.cfi_offset 5, -8
	movl	%esp, %ebp
	.cfi_def_cfa_register 5
	subl	$4, %esp
	movl	%ecx, -4(%ebp)
	movl	-4(%ebp), %eax
	leave
	.cfi_restore 5
	.cfi_def_cfa 4, 4
	ret
	.cfi_endproc
LFE2843:
	.section	.text$_ZNSaINSt7__cxx1112basic_stringIcSt11char_traitsIcESaIcEEEED2Ev,"x"
	.linkonce discard
	.align 2
	.globl	__ZNSaINSt7__cxx1112basic_stringIcSt11char_traitsIcESaIcEEEED2Ev
	.def	__ZNSaINSt7__cxx1112basic_stringIcSt11char_traitsIcESaIcEEEED2Ev;	.scl	2;	.type	32;	.endef
__ZNSaINSt7__cxx1112basic_stringIcSt11char_traitsIcESaIcEEEED2Ev:
LFB2845:
	.cfi_startproc
	pushl	%ebp
	.cfi_def_cfa_offset 8
	.cfi_offset 5, -8
	movl	%esp, %ebp
	.cfi_def_cfa_register 5
	subl	$24, %esp
	movl	%ecx, -12(%ebp)
	movl	-12(%ebp), %eax
	movl	%eax, %ecx
	call	__ZN9__gnu_cxx13new_allocatorINSt7__cxx1112basic_stringIcSt11char_traitsIcESaIcEEEED2Ev
	nop
	leave
	.cfi_restore 5
	.cfi_def_cfa 4, 4
	ret
	.cfi_endproc
LFE2845:
	.section	.text$_ZNSaINSt7__cxx1112basic_stringIcSt11char_traitsIcESaIcEEEED1Ev,"x"
	.linkonce discard
	.align 2
	.globl	__ZNSaINSt7__cxx1112basic_stringIcSt11char_traitsIcESaIcEEEED1Ev
	.def	__ZNSaINSt7__cxx1112basic_stringIcSt11char_traitsIcESaIcEEEED1Ev;	.scl	2;	.type	32;	.endef
__ZNSaINSt7__cxx1112basic_stringIcSt11char_traitsIcESaIcEEEED1Ev:
LFB2846:
	.cfi_startproc
	pushl	%ebp
	.cfi_def_cfa_offset 8
	.cfi_offset 5, -8
	movl	%esp, %ebp
	.cfi_def_cfa_register 5
	subl	$24, %esp
	movl	%ecx, -12(%ebp)
	movl	-12(%ebp), %eax
	movl	%eax, %ecx
	call	__ZN9__gnu_cxx13new_allocatorINSt7__cxx1112basic_stringIcSt11char_traitsIcESaIcEEEED2Ev
	nop
	leave
	.cfi_restore 5
	.cfi_def_cfa 4, 4
	ret
	.cfi_endproc
LFE2846:
	.section	.text$_ZNSt12_Vector_baseINSt7__cxx1112basic_stringIcSt11char_traitsIcESaIcEEESaIS5_EE12_Vector_implD1Ev,"x"
	.linkonce discard
	.align 2
	.globl	__ZNSt12_Vector_baseINSt7__cxx1112basic_stringIcSt11char_traitsIcESaIcEEESaIS5_EE12_Vector_implD1Ev
	.def	__ZNSt12_Vector_baseINSt7__cxx1112basic_stringIcSt11char_traitsIcESaIcEEESaIS5_EE12_Vector_implD1Ev;	.scl	2;	.type	32;	.endef
__ZNSt12_Vector_baseINSt7__cxx1112basic_stringIcSt11char_traitsIcESaIcEEESaIS5_EE12_Vector_implD1Ev:
LFB2850:
	.cfi_startproc
	pushl	%ebp
	.cfi_def_cfa_offset 8
	.cfi_offset 5, -8
	movl	%esp, %ebp
	.cfi_def_cfa_register 5
	subl	$24, %esp
	movl	%ecx, -12(%ebp)
	movl	-12(%ebp), %eax
	movl	%eax, %ecx
	call	__ZNSaINSt7__cxx1112basic_stringIcSt11char_traitsIcESaIcEEEED2Ev
	nop
	leave
	.cfi_restore 5
	.cfi_def_cfa 4, 4
	ret
	.cfi_endproc
LFE2850:
	.section	.text$_ZNSt12_Vector_baseINSt7__cxx1112basic_stringIcSt11char_traitsIcESaIcEEESaIS5_EEC2EjRKS6_,"x"
	.linkonce discard
	.align 2
	.globl	__ZNSt12_Vector_baseINSt7__cxx1112basic_stringIcSt11char_traitsIcESaIcEEESaIS5_EEC2EjRKS6_
	.def	__ZNSt12_Vector_baseINSt7__cxx1112basic_stringIcSt11char_traitsIcESaIcEEESaIS5_EEC2EjRKS6_;	.scl	2;	.type	32;	.endef
__ZNSt12_Vector_baseINSt7__cxx1112basic_stringIcSt11char_traitsIcESaIcEEESaIS5_EEC2EjRKS6_:
LFB2851:
	.cfi_startproc
	.cfi_personality 0,___gxx_personality_v0
	.cfi_lsda 0,LLSDA2851
	pushl	%ebp
	.cfi_def_cfa_offset 8
	.cfi_offset 5, -8
	movl	%esp, %ebp
	.cfi_def_cfa_register 5
	pushl	%ebx
	subl	$36, %esp
	.cfi_offset 3, -12
	movl	%ecx, -12(%ebp)
	movl	-12(%ebp), %eax
	movl	12(%ebp), %edx
	movl	%edx, (%esp)
	movl	%eax, %ecx
	call	__ZNSt12_Vector_baseINSt7__cxx1112basic_stringIcSt11char_traitsIcESaIcEEESaIS5_EE12_Vector_implC1ERKS6_
	subl	$4, %esp
	movl	-12(%ebp), %eax
	movl	8(%ebp), %edx
	movl	%edx, (%esp)
	movl	%eax, %ecx
LEHB108:
	call	__ZNSt12_Vector_baseINSt7__cxx1112basic_stringIcSt11char_traitsIcESaIcEEESaIS5_EE17_M_create_storageEj
LEHE108:
	subl	$4, %esp
	jmp	L582
L581:
	movl	%eax, %ebx
	movl	-12(%ebp), %eax
	movl	%eax, %ecx
	call	__ZNSt12_Vector_baseINSt7__cxx1112basic_stringIcSt11char_traitsIcESaIcEEESaIS5_EE12_Vector_implD1Ev
	movl	%ebx, %eax
	movl	%eax, (%esp)
LEHB109:
	call	__Unwind_Resume
LEHE109:
L582:
	movl	-4(%ebp), %ebx
	leave
	.cfi_restore 5
	.cfi_restore 3
	.cfi_def_cfa 4, 4
	ret	$8
	.cfi_endproc
LFE2851:
	.section	.gcc_except_table,"w"
LLSDA2851:
	.byte	0xff
	.byte	0xff
	.byte	0x1
	.uleb128 LLSDACSE2851-LLSDACSB2851
LLSDACSB2851:
	.uleb128 LEHB108-LFB2851
	.uleb128 LEHE108-LEHB108
	.uleb128 L581-LFB2851
	.uleb128 0
	.uleb128 LEHB109-LFB2851
	.uleb128 LEHE109-LEHB109
	.uleb128 0
	.uleb128 0
LLSDACSE2851:
	.section	.text$_ZNSt12_Vector_baseINSt7__cxx1112basic_stringIcSt11char_traitsIcESaIcEEESaIS5_EEC2EjRKS6_,"x"
	.linkonce discard
	.section	.text$_ZNSt12_Vector_baseINSt7__cxx1112basic_stringIcSt11char_traitsIcESaIcEEESaIS5_EED2Ev,"x"
	.linkonce discard
	.align 2
	.globl	__ZNSt12_Vector_baseINSt7__cxx1112basic_stringIcSt11char_traitsIcESaIcEEESaIS5_EED2Ev
	.def	__ZNSt12_Vector_baseINSt7__cxx1112basic_stringIcSt11char_traitsIcESaIcEEESaIS5_EED2Ev;	.scl	2;	.type	32;	.endef
__ZNSt12_Vector_baseINSt7__cxx1112basic_stringIcSt11char_traitsIcESaIcEEESaIS5_EED2Ev:
LFB2854:
	.cfi_startproc
	.cfi_personality 0,___gxx_personality_v0
	.cfi_lsda 0,LLSDA2854
	pushl	%ebp
	.cfi_def_cfa_offset 8
	.cfi_offset 5, -8
	movl	%esp, %ebp
	.cfi_def_cfa_register 5
	subl	$40, %esp
	movl	%ecx, -12(%ebp)
	movl	-12(%ebp), %eax
	movl	8(%eax), %eax
	movl	%eax, %edx
	movl	-12(%ebp), %eax
	movl	(%eax), %eax
	subl	%eax, %edx
	movl	%edx, %eax
	sarl	$3, %eax
	imull	$-1431655765, %eax, %eax
	movl	%eax, %ecx
	movl	-12(%ebp), %eax
	movl	(%eax), %edx
	movl	-12(%ebp), %eax
	movl	%ecx, 4(%esp)
	movl	%edx, (%esp)
	movl	%eax, %ecx
	call	__ZNSt12_Vector_baseINSt7__cxx1112basic_stringIcSt11char_traitsIcESaIcEEESaIS5_EE13_M_deallocateEPS5_j
	subl	$8, %esp
	movl	-12(%ebp), %eax
	movl	%eax, %ecx
	call	__ZNSt12_Vector_baseINSt7__cxx1112basic_stringIcSt11char_traitsIcESaIcEEESaIS5_EE12_Vector_implD1Ev
	nop
	leave
	.cfi_restore 5
	.cfi_def_cfa 4, 4
	ret
	.cfi_endproc
LFE2854:
	.section	.gcc_except_table,"w"
LLSDA2854:
	.byte	0xff
	.byte	0xff
	.byte	0x1
	.uleb128 LLSDACSE2854-LLSDACSB2854
LLSDACSB2854:
LLSDACSE2854:
	.section	.text$_ZNSt12_Vector_baseINSt7__cxx1112basic_stringIcSt11char_traitsIcESaIcEEESaIS5_EED2Ev,"x"
	.linkonce discard
	.section	.text$_ZNKSt6vectorINSt7__cxx1112basic_stringIcSt11char_traitsIcESaIcEEESaIS5_EE5beginEv,"x"
	.linkonce discard
	.align 2
	.globl	__ZNKSt6vectorINSt7__cxx1112basic_stringIcSt11char_traitsIcESaIcEEESaIS5_EE5beginEv
	.def	__ZNKSt6vectorINSt7__cxx1112basic_stringIcSt11char_traitsIcESaIcEEESaIS5_EE5beginEv;	.scl	2;	.type	32;	.endef
__ZNKSt6vectorINSt7__cxx1112basic_stringIcSt11char_traitsIcESaIcEEESaIS5_EE5beginEv:
LFB2856:
	.cfi_startproc
	pushl	%ebp
	.cfi_def_cfa_offset 8
	.cfi_offset 5, -8
	movl	%esp, %ebp
	.cfi_def_cfa_register 5
	subl	$56, %esp
	movl	%ecx, -28(%ebp)
	movl	-28(%ebp), %eax
	movl	(%eax), %eax
	movl	%eax, -12(%ebp)
	leal	-16(%ebp), %eax
	leal	-12(%ebp), %edx
	movl	%edx, (%esp)
	movl	%eax, %ecx
	call	__ZN9__gnu_cxx17__normal_iteratorIPKNSt7__cxx1112basic_stringIcSt11char_traitsIcESaIcEEESt6vectorIS6_SaIS6_EEEC1ERKS8_
	subl	$4, %esp
	movl	-16(%ebp), %eax
	leave
	.cfi_restore 5
	.cfi_def_cfa 4, 4
	ret
	.cfi_endproc
LFE2856:
	.section	.text$_ZNKSt6vectorINSt7__cxx1112basic_stringIcSt11char_traitsIcESaIcEEESaIS5_EE3endEv,"x"
	.linkonce discard
	.align 2
	.globl	__ZNKSt6vectorINSt7__cxx1112basic_stringIcSt11char_traitsIcESaIcEEESaIS5_EE3endEv
	.def	__ZNKSt6vectorINSt7__cxx1112basic_stringIcSt11char_traitsIcESaIcEEESaIS5_EE3endEv;	.scl	2;	.type	32;	.endef
__ZNKSt6vectorINSt7__cxx1112basic_stringIcSt11char_traitsIcESaIcEEESaIS5_EE3endEv:
LFB2857:
	.cfi_startproc
	pushl	%ebp
	.cfi_def_cfa_offset 8
	.cfi_offset 5, -8
	movl	%esp, %ebp
	.cfi_def_cfa_register 5
	subl	$56, %esp
	movl	%ecx, -28(%ebp)
	movl	-28(%ebp), %eax
	movl	4(%eax), %eax
	movl	%eax, -12(%ebp)
	leal	-16(%ebp), %eax
	leal	-12(%ebp), %edx
	movl	%edx, (%esp)
	movl	%eax, %ecx
	call	__ZN9__gnu_cxx17__normal_iteratorIPKNSt7__cxx1112basic_stringIcSt11char_traitsIcESaIcEEESt6vectorIS6_SaIS6_EEEC1ERKS8_
	subl	$4, %esp
	movl	-16(%ebp), %eax
	leave
	.cfi_restore 5
	.cfi_def_cfa 4, 4
	ret
	.cfi_endproc
LFE2857:
	.section	.text$_ZNSt12_Vector_baseINSt7__cxx1112basic_stringIcSt11char_traitsIcESaIcEEESaIS5_EE19_M_get_Tp_allocatorEv,"x"
	.linkonce discard
	.align 2
	.globl	__ZNSt12_Vector_baseINSt7__cxx1112basic_stringIcSt11char_traitsIcESaIcEEESaIS5_EE19_M_get_Tp_allocatorEv
	.def	__ZNSt12_Vector_baseINSt7__cxx1112basic_stringIcSt11char_traitsIcESaIcEEESaIS5_EE19_M_get_Tp_allocatorEv;	.scl	2;	.type	32;	.endef
__ZNSt12_Vector_baseINSt7__cxx1112basic_stringIcSt11char_traitsIcESaIcEEESaIS5_EE19_M_get_Tp_allocatorEv:
LFB2858:
	.cfi_startproc
	pushl	%ebp
	.cfi_def_cfa_offset 8
	.cfi_offset 5, -8
	movl	%esp, %ebp
	.cfi_def_cfa_register 5
	subl	$4, %esp
	movl	%ecx, -4(%ebp)
	movl	-4(%ebp), %eax
	leave
	.cfi_restore 5
	.cfi_def_cfa 4, 4
	ret
	.cfi_endproc
LFE2858:
	.section	.text$_ZSt22__uninitialized_copy_aIN9__gnu_cxx17__normal_iteratorIPKNSt7__cxx1112basic_stringIcSt11char_traitsIcESaIcEEESt6vectorIS7_SaIS7_EEEEPS7_S7_ET0_T_SG_SF_RSaIT1_E,"x"
	.linkonce discard
	.globl	__ZSt22__uninitialized_copy_aIN9__gnu_cxx17__normal_iteratorIPKNSt7__cxx1112basic_stringIcSt11char_traitsIcESaIcEEESt6vectorIS7_SaIS7_EEEEPS7_S7_ET0_T_SG_SF_RSaIT1_E
	.def	__ZSt22__uninitialized_copy_aIN9__gnu_cxx17__normal_iteratorIPKNSt7__cxx1112basic_stringIcSt11char_traitsIcESaIcEEESt6vectorIS7_SaIS7_EEEEPS7_S7_ET0_T_SG_SF_RSaIT1_E;	.scl	2;	.type	32;	.endef
__ZSt22__uninitialized_copy_aIN9__gnu_cxx17__normal_iteratorIPKNSt7__cxx1112basic_stringIcSt11char_traitsIcESaIcEEESt6vectorIS7_SaIS7_EEEEPS7_S7_ET0_T_SG_SF_RSaIT1_E:
LFB2859:
	.cfi_startproc
	pushl	%ebp
	.cfi_def_cfa_offset 8
	.cfi_offset 5, -8
	movl	%esp, %ebp
	.cfi_def_cfa_register 5
	subl	$24, %esp
	movl	16(%ebp), %eax
	movl	%eax, 8(%esp)
	movl	12(%ebp), %eax
	movl	%eax, 4(%esp)
	movl	8(%ebp), %eax
	movl	%eax, (%esp)
	call	__ZSt18uninitialized_copyIN9__gnu_cxx17__normal_iteratorIPKNSt7__cxx1112basic_stringIcSt11char_traitsIcESaIcEEESt6vectorIS7_SaIS7_EEEEPS7_ET0_T_SG_SF_
	leave
	.cfi_restore 5
	.cfi_def_cfa 4, 4
	ret
	.cfi_endproc
LFE2859:
	.section	.text$_ZSt8_DestroyIPNSt7__cxx1112basic_stringIcSt11char_traitsIcESaIcEEES5_EvT_S7_RSaIT0_E,"x"
	.linkonce discard
	.globl	__ZSt8_DestroyIPNSt7__cxx1112basic_stringIcSt11char_traitsIcESaIcEEES5_EvT_S7_RSaIT0_E
	.def	__ZSt8_DestroyIPNSt7__cxx1112basic_stringIcSt11char_traitsIcESaIcEEES5_EvT_S7_RSaIT0_E;	.scl	2;	.type	32;	.endef
__ZSt8_DestroyIPNSt7__cxx1112basic_stringIcSt11char_traitsIcESaIcEEES5_EvT_S7_RSaIT0_E:
LFB2860:
	.cfi_startproc
	pushl	%ebp
	.cfi_def_cfa_offset 8
	.cfi_offset 5, -8
	movl	%esp, %ebp
	.cfi_def_cfa_register 5
	subl	$24, %esp
	movl	12(%ebp), %eax
	movl	%eax, 4(%esp)
	movl	8(%ebp), %eax
	movl	%eax, (%esp)
	call	__ZSt8_DestroyIPNSt7__cxx1112basic_stringIcSt11char_traitsIcESaIcEEEEvT_S7_
	nop
	leave
	.cfi_restore 5
	.cfi_def_cfa 4, 4
	ret
	.cfi_endproc
LFE2860:
	.section	.text$_ZNSt12_Vector_baseINSt7__cxx1112basic_stringIcSt11char_traitsIcESaIcEEESaIS5_EEC2Ev,"x"
	.linkonce discard
	.align 2
	.globl	__ZNSt12_Vector_baseINSt7__cxx1112basic_stringIcSt11char_traitsIcESaIcEEESaIS5_EEC2Ev
	.def	__ZNSt12_Vector_baseINSt7__cxx1112basic_stringIcSt11char_traitsIcESaIcEEESaIS5_EEC2Ev;	.scl	2;	.type	32;	.endef
__ZNSt12_Vector_baseINSt7__cxx1112basic_stringIcSt11char_traitsIcESaIcEEESaIS5_EEC2Ev:
LFB2863:
	.cfi_startproc
	pushl	%ebp
	.cfi_def_cfa_offset 8
	.cfi_offset 5, -8
	movl	%esp, %ebp
	.cfi_def_cfa_register 5
	subl	$24, %esp
	movl	%ecx, -12(%ebp)
	movl	-12(%ebp), %eax
	movl	%eax, %ecx
	call	__ZNSt12_Vector_baseINSt7__cxx1112basic_stringIcSt11char_traitsIcESaIcEEESaIS5_EE12_Vector_implC1Ev
	nop
	leave
	.cfi_restore 5
	.cfi_def_cfa 4, 4
	ret
	.cfi_endproc
LFE2863:
	.section	.text$_ZSt7forwardIRKNSt7__cxx1112basic_stringIcSt11char_traitsIcESaIcEEEEOT_RNSt16remove_referenceIS8_E4typeE,"x"
	.linkonce discard
	.globl	__ZSt7forwardIRKNSt7__cxx1112basic_stringIcSt11char_traitsIcESaIcEEEEOT_RNSt16remove_referenceIS8_E4typeE
	.def	__ZSt7forwardIRKNSt7__cxx1112basic_stringIcSt11char_traitsIcESaIcEEEEOT_RNSt16remove_referenceIS8_E4typeE;	.scl	2;	.type	32;	.endef
__ZSt7forwardIRKNSt7__cxx1112basic_stringIcSt11char_traitsIcESaIcEEEEOT_RNSt16remove_referenceIS8_E4typeE:
LFB2899:
	.cfi_startproc
	pushl	%ebp
	.cfi_def_cfa_offset 8
	.cfi_offset 5, -8
	movl	%esp, %ebp
	.cfi_def_cfa_register 5
	movl	8(%ebp), %eax
	popl	%ebp
	.cfi_restore 5
	.cfi_def_cfa 4, 4
	ret
	.cfi_endproc
LFE2899:
	.section	.text$_ZNSt16allocator_traitsISaINSt7__cxx1112basic_stringIcSt11char_traitsIcESaIcEEEEE9constructIS5_JRKS5_EEEvRS6_PT_DpOT0_,"x"
	.linkonce discard
	.globl	__ZNSt16allocator_traitsISaINSt7__cxx1112basic_stringIcSt11char_traitsIcESaIcEEEEE9constructIS5_JRKS5_EEEvRS6_PT_DpOT0_
	.def	__ZNSt16allocator_traitsISaINSt7__cxx1112basic_stringIcSt11char_traitsIcESaIcEEEEE9constructIS5_JRKS5_EEEvRS6_PT_DpOT0_;	.scl	2;	.type	32;	.endef
__ZNSt16allocator_traitsISaINSt7__cxx1112basic_stringIcSt11char_traitsIcESaIcEEEEE9constructIS5_JRKS5_EEEvRS6_PT_DpOT0_:
LFB2898:
	.cfi_startproc
	pushl	%ebp
	.cfi_def_cfa_offset 8
	.cfi_offset 5, -8
	movl	%esp, %ebp
	.cfi_def_cfa_register 5
	subl	$24, %esp
	movl	16(%ebp), %eax
	movl	%eax, (%esp)
	call	__ZSt7forwardIRKNSt7__cxx1112basic_stringIcSt11char_traitsIcESaIcEEEEOT_RNSt16remove_referenceIS8_E4typeE
	movl	%eax, 4(%esp)
	movl	12(%ebp), %eax
	movl	%eax, (%esp)
	movl	8(%ebp), %ecx
	call	__ZN9__gnu_cxx13new_allocatorINSt7__cxx1112basic_stringIcSt11char_traitsIcESaIcEEEE9constructIS6_JRKS6_EEEvPT_DpOT0_
	subl	$8, %esp
	nop
	leave
	.cfi_restore 5
	.cfi_def_cfa 4, 4
	ret
	.cfi_endproc
LFE2898:
	.section	.text$_ZNSt6vectorINSt7__cxx1112basic_stringIcSt11char_traitsIcESaIcEEESaIS5_EE19_M_emplace_back_auxIJRKS5_EEEvDpOT_,"x"
	.linkonce discard
	.align 2
	.globl	__ZNSt6vectorINSt7__cxx1112basic_stringIcSt11char_traitsIcESaIcEEESaIS5_EE19_M_emplace_back_auxIJRKS5_EEEvDpOT_
	.def	__ZNSt6vectorINSt7__cxx1112basic_stringIcSt11char_traitsIcESaIcEEESaIS5_EE19_M_emplace_back_auxIJRKS5_EEEvDpOT_;	.scl	2;	.type	32;	.endef
__ZNSt6vectorINSt7__cxx1112basic_stringIcSt11char_traitsIcESaIcEEESaIS5_EE19_M_emplace_back_auxIJRKS5_EEEvDpOT_:
LFB2900:
	.cfi_startproc
	.cfi_personality 0,___gxx_personality_v0
	.cfi_lsda 0,LLSDA2900
	pushl	%ebp
	.cfi_def_cfa_offset 8
	.cfi_offset 5, -8
	movl	%esp, %ebp
	.cfi_def_cfa_register 5
	pushl	%ebx
	subl	$52, %esp
	.cfi_offset 3, -12
	movl	%ecx, -28(%ebp)
	movl	-28(%ebp), %eax
	movl	$LC79, 4(%esp)
	movl	$1, (%esp)
	movl	%eax, %ecx
LEHB110:
	call	__ZNKSt6vectorINSt7__cxx1112basic_stringIcSt11char_traitsIcESaIcEEESaIS5_EE12_M_check_lenEjPKc
	subl	$8, %esp
	movl	%eax, -16(%ebp)
	movl	-28(%ebp), %eax
	movl	-16(%ebp), %edx
	movl	%edx, (%esp)
	movl	%eax, %ecx
	call	__ZNSt12_Vector_baseINSt7__cxx1112basic_stringIcSt11char_traitsIcESaIcEEESaIS5_EE11_M_allocateEj
LEHE110:
	subl	$4, %esp
	movl	%eax, -20(%ebp)
	movl	-20(%ebp), %eax
	movl	%eax, -12(%ebp)
	movl	8(%ebp), %eax
	movl	%eax, (%esp)
	call	__ZSt7forwardIRKNSt7__cxx1112basic_stringIcSt11char_traitsIcESaIcEEEEOT_RNSt16remove_referenceIS8_E4typeE
	movl	%eax, %ebx
	movl	-28(%ebp), %eax
	movl	%eax, %ecx
	call	__ZNKSt6vectorINSt7__cxx1112basic_stringIcSt11char_traitsIcESaIcEEESaIS5_EE4sizeEv
	movl	%eax, %edx
	movl	%edx, %eax
	addl	%eax, %eax
	addl	%edx, %eax
	sall	$3, %eax
	movl	%eax, %edx
	movl	-20(%ebp), %eax
	addl	%eax, %edx
	movl	-28(%ebp), %eax
	movl	%ebx, 8(%esp)
	movl	%edx, 4(%esp)
	movl	%eax, (%esp)
LEHB111:
	call	__ZNSt16allocator_traitsISaINSt7__cxx1112basic_stringIcSt11char_traitsIcESaIcEEEEE9constructIS5_JRKS5_EEEvRS6_PT_DpOT0_
	movl	$0, -12(%ebp)
	movl	-28(%ebp), %eax
	movl	%eax, %ecx
	call	__ZNSt12_Vector_baseINSt7__cxx1112basic_stringIcSt11char_traitsIcESaIcEEESaIS5_EE19_M_get_Tp_allocatorEv
	movl	%eax, %ecx
	movl	-28(%ebp), %eax
	movl	4(%eax), %edx
	movl	-28(%ebp), %eax
	movl	(%eax), %eax
	movl	%ecx, 12(%esp)
	movl	-20(%ebp), %ecx
	movl	%ecx, 8(%esp)
	movl	%edx, 4(%esp)
	movl	%eax, (%esp)
	call	__ZSt34__uninitialized_move_if_noexcept_aIPNSt7__cxx1112basic_stringIcSt11char_traitsIcESaIcEEES6_SaIS5_EET0_T_S9_S8_RT1_
LEHE111:
	movl	%eax, -12(%ebp)
	addl	$24, -12(%ebp)
	movl	-28(%ebp), %eax
	movl	%eax, %ecx
	call	__ZNSt12_Vector_baseINSt7__cxx1112basic_stringIcSt11char_traitsIcESaIcEEESaIS5_EE19_M_get_Tp_allocatorEv
	movl	%eax, %ecx
	movl	-28(%ebp), %eax
	movl	4(%eax), %edx
	movl	-28(%ebp), %eax
	movl	(%eax), %eax
	movl	%ecx, 8(%esp)
	movl	%edx, 4(%esp)
	movl	%eax, (%esp)
LEHB112:
	call	__ZSt8_DestroyIPNSt7__cxx1112basic_stringIcSt11char_traitsIcESaIcEEES5_EvT_S7_RSaIT0_E
	movl	-28(%ebp), %eax
	movl	8(%eax), %eax
	movl	%eax, %edx
	movl	-28(%ebp), %eax
	movl	(%eax), %eax
	subl	%eax, %edx
	movl	%edx, %eax
	sarl	$3, %eax
	imull	$-1431655765, %eax, %eax
	movl	%eax, %ecx
	movl	-28(%ebp), %eax
	movl	(%eax), %edx
	movl	-28(%ebp), %eax
	movl	%ecx, 4(%esp)
	movl	%edx, (%esp)
	movl	%eax, %ecx
	call	__ZNSt12_Vector_baseINSt7__cxx1112basic_stringIcSt11char_traitsIcESaIcEEESaIS5_EE13_M_deallocateEPS5_j
LEHE112:
	subl	$8, %esp
	movl	-28(%ebp), %eax
	movl	-20(%ebp), %edx
	movl	%edx, (%eax)
	movl	-28(%ebp), %eax
	movl	-12(%ebp), %edx
	movl	%edx, 4(%eax)
	movl	-16(%ebp), %edx
	movl	%edx, %eax
	addl	%eax, %eax
	addl	%edx, %eax
	sall	$3, %eax
	movl	%eax, %edx
	movl	-20(%ebp), %eax
	addl	%eax, %edx
	movl	-28(%ebp), %eax
	movl	%edx, 8(%eax)
	jmp	L604
L602:
	movl	%eax, (%esp)
	call	___cxa_begin_catch
	cmpl	$0, -12(%ebp)
	jne	L599
	movl	-28(%ebp), %eax
	movl	%eax, %ecx
	call	__ZNKSt6vectorINSt7__cxx1112basic_stringIcSt11char_traitsIcESaIcEEESaIS5_EE4sizeEv
	movl	%eax, %edx
	movl	%edx, %eax
	addl	%eax, %eax
	addl	%edx, %eax
	sall	$3, %eax
	movl	%eax, %edx
	movl	-20(%ebp), %eax
	addl	%eax, %edx
	movl	-28(%ebp), %eax
	movl	%edx, 4(%esp)
	movl	%eax, (%esp)
LEHB113:
	call	__ZNSt16allocator_traitsISaINSt7__cxx1112basic_stringIcSt11char_traitsIcESaIcEEEEE7destroyIS5_EEvRS6_PT_
	jmp	L600
L599:
	movl	-28(%ebp), %eax
	movl	%eax, %ecx
	call	__ZNSt12_Vector_baseINSt7__cxx1112basic_stringIcSt11char_traitsIcESaIcEEESaIS5_EE19_M_get_Tp_allocatorEv
	movl	%eax, 8(%esp)
	movl	-12(%ebp), %eax
	movl	%eax, 4(%esp)
	movl	-20(%ebp), %eax
	movl	%eax, (%esp)
	call	__ZSt8_DestroyIPNSt7__cxx1112basic_stringIcSt11char_traitsIcESaIcEEES5_EvT_S7_RSaIT0_E
L600:
	movl	-28(%ebp), %eax
	movl	-16(%ebp), %edx
	movl	%edx, 4(%esp)
	movl	-20(%ebp), %edx
	movl	%edx, (%esp)
	movl	%eax, %ecx
	call	__ZNSt12_Vector_baseINSt7__cxx1112basic_stringIcSt11char_traitsIcESaIcEEESaIS5_EE13_M_deallocateEPS5_j
	subl	$8, %esp
	call	___cxa_rethrow
LEHE113:
L603:
	movl	%eax, %ebx
	call	___cxa_end_catch
	movl	%ebx, %eax
	movl	%eax, (%esp)
LEHB114:
	call	__Unwind_Resume
LEHE114:
L604:
	movl	-4(%ebp), %ebx
	leave
	.cfi_restore 5
	.cfi_restore 3
	.cfi_def_cfa 4, 4
	ret	$4
	.cfi_endproc
LFE2900:
	.section	.gcc_except_table,"w"
	.align 4
LLSDA2900:
	.byte	0xff
	.byte	0
	.uleb128 LLSDATT2900-LLSDATTD2900
LLSDATTD2900:
	.byte	0x1
	.uleb128 LLSDACSE2900-LLSDACSB2900
LLSDACSB2900:
	.uleb128 LEHB110-LFB2900
	.uleb128 LEHE110-LEHB110
	.uleb128 0
	.uleb128 0
	.uleb128 LEHB111-LFB2900
	.uleb128 LEHE111-LEHB111
	.uleb128 L602-LFB2900
	.uleb128 0x1
	.uleb128 LEHB112-LFB2900
	.uleb128 LEHE112-LEHB112
	.uleb128 0
	.uleb128 0
	.uleb128 LEHB113-LFB2900
	.uleb128 LEHE113-LEHB113
	.uleb128 L603-LFB2900
	.uleb128 0
	.uleb128 LEHB114-LFB2900
	.uleb128 LEHE114-LEHB114
	.uleb128 0
	.uleb128 0
LLSDACSE2900:
	.byte	0x1
	.byte	0
	.align 4
	.long	0
LLSDATT2900:
	.section	.text$_ZNSt6vectorINSt7__cxx1112basic_stringIcSt11char_traitsIcESaIcEEESaIS5_EE19_M_emplace_back_auxIJRKS5_EEEvDpOT_,"x"
	.linkonce discard
	.section	.text$_ZNSt12_Vector_baseI8heapNodeSaIS0_EE12_Vector_implC1Ev,"x"
	.linkonce discard
	.align 2
	.globl	__ZNSt12_Vector_baseI8heapNodeSaIS0_EE12_Vector_implC1Ev
	.def	__ZNSt12_Vector_baseI8heapNodeSaIS0_EE12_Vector_implC1Ev;	.scl	2;	.type	32;	.endef
__ZNSt12_Vector_baseI8heapNodeSaIS0_EE12_Vector_implC1Ev:
LFB2933:
	.cfi_startproc
	pushl	%ebp
	.cfi_def_cfa_offset 8
	.cfi_offset 5, -8
	movl	%esp, %ebp
	.cfi_def_cfa_register 5
	subl	$24, %esp
	movl	%ecx, -12(%ebp)
	movl	-12(%ebp), %eax
	movl	%eax, %ecx
	call	__ZNSaI8heapNodeEC2Ev
	movl	-12(%ebp), %eax
	movl	$0, (%eax)
	movl	-12(%ebp), %eax
	movl	$0, 4(%eax)
	movl	-12(%ebp), %eax
	movl	$0, 8(%eax)
	nop
	leave
	.cfi_restore 5
	.cfi_def_cfa 4, 4
	ret
	.cfi_endproc
LFE2933:
	.section	.text$_ZNSaI8heapNodeED2Ev,"x"
	.linkonce discard
	.align 2
	.globl	__ZNSaI8heapNodeED2Ev
	.def	__ZNSaI8heapNodeED2Ev;	.scl	2;	.type	32;	.endef
__ZNSaI8heapNodeED2Ev:
LFB2935:
	.cfi_startproc
	pushl	%ebp
	.cfi_def_cfa_offset 8
	.cfi_offset 5, -8
	movl	%esp, %ebp
	.cfi_def_cfa_register 5
	subl	$24, %esp
	movl	%ecx, -12(%ebp)
	movl	-12(%ebp), %eax
	movl	%eax, %ecx
	call	__ZN9__gnu_cxx13new_allocatorI8heapNodeED2Ev
	nop
	leave
	.cfi_restore 5
	.cfi_def_cfa 4, 4
	ret
	.cfi_endproc
LFE2935:
	.section	.text$_ZNSt12_Vector_baseI8heapNodeSaIS0_EE13_M_deallocateEPS0_j,"x"
	.linkonce discard
	.align 2
	.globl	__ZNSt12_Vector_baseI8heapNodeSaIS0_EE13_M_deallocateEPS0_j
	.def	__ZNSt12_Vector_baseI8heapNodeSaIS0_EE13_M_deallocateEPS0_j;	.scl	2;	.type	32;	.endef
__ZNSt12_Vector_baseI8heapNodeSaIS0_EE13_M_deallocateEPS0_j:
LFB2937:
	.cfi_startproc
	pushl	%ebp
	.cfi_def_cfa_offset 8
	.cfi_offset 5, -8
	movl	%esp, %ebp
	.cfi_def_cfa_register 5
	subl	$40, %esp
	movl	%ecx, -12(%ebp)
	cmpl	$0, 8(%ebp)
	je	L609
	movl	-12(%ebp), %eax
	movl	12(%ebp), %edx
	movl	%edx, 8(%esp)
	movl	8(%ebp), %edx
	movl	%edx, 4(%esp)
	movl	%eax, (%esp)
	call	__ZNSt16allocator_traitsISaI8heapNodeEE10deallocateERS1_PS0_j
L609:
	nop
	leave
	.cfi_restore 5
	.cfi_def_cfa 4, 4
	ret	$8
	.cfi_endproc
LFE2937:
	.section	.text$_ZSt8_DestroyIP8heapNodeEvT_S2_,"x"
	.linkonce discard
	.globl	__ZSt8_DestroyIP8heapNodeEvT_S2_
	.def	__ZSt8_DestroyIP8heapNodeEvT_S2_;	.scl	2;	.type	32;	.endef
__ZSt8_DestroyIP8heapNodeEvT_S2_:
LFB2938:
	.cfi_startproc
	pushl	%ebp
	.cfi_def_cfa_offset 8
	.cfi_offset 5, -8
	movl	%esp, %ebp
	.cfi_def_cfa_register 5
	subl	$24, %esp
	movl	12(%ebp), %eax
	movl	%eax, 4(%esp)
	movl	8(%ebp), %eax
	movl	%eax, (%esp)
	call	__ZNSt12_Destroy_auxILb0EE9__destroyIP8heapNodeEEvT_S4_
	nop
	leave
	.cfi_restore 5
	.cfi_def_cfa 4, 4
	ret
	.cfi_endproc
LFE2938:
	.section	.text$_ZN8heapNodeC1ERKS_,"x"
	.linkonce discard
	.align 2
	.globl	__ZN8heapNodeC1ERKS_
	.def	__ZN8heapNodeC1ERKS_;	.scl	2;	.type	32;	.endef
__ZN8heapNodeC1ERKS_:
LFB2943:
	.cfi_startproc
	pushl	%ebp
	.cfi_def_cfa_offset 8
	.cfi_offset 5, -8
	movl	%esp, %ebp
	.cfi_def_cfa_register 5
	subl	$40, %esp
	movl	%ecx, -12(%ebp)
	movl	8(%ebp), %edx
	movl	-12(%ebp), %eax
	movl	%edx, (%esp)
	movl	%eax, %ecx
	call	__ZNSt7__cxx1112basic_stringIcSt11char_traitsIcESaIcEEC1ERKS4_
	subl	$4, %esp
	movl	8(%ebp), %eax
	movl	24(%eax), %edx
	movl	-12(%ebp), %eax
	movl	%edx, 24(%eax)
	movl	8(%ebp), %eax
	movl	28(%eax), %edx
	movl	-12(%ebp), %eax
	movl	%edx, 28(%eax)
	nop
	leave
	.cfi_restore 5
	.cfi_def_cfa 4, 4
	ret	$4
	.cfi_endproc
LFE2943:
	.section	.text$_ZN9__gnu_cxx13new_allocatorI8heapNodeE9constructIS1_JRKS1_EEEvPT_DpOT0_,"x"
	.linkonce discard
	.align 2
	.globl	__ZN9__gnu_cxx13new_allocatorI8heapNodeE9constructIS1_JRKS1_EEEvPT_DpOT0_
	.def	__ZN9__gnu_cxx13new_allocatorI8heapNodeE9constructIS1_JRKS1_EEEvPT_DpOT0_;	.scl	2;	.type	32;	.endef
__ZN9__gnu_cxx13new_allocatorI8heapNodeE9constructIS1_JRKS1_EEEvPT_DpOT0_:
LFB2940:
	.cfi_startproc
	.cfi_personality 0,___gxx_personality_v0
	.cfi_lsda 0,LLSDA2940
	pushl	%ebp
	.cfi_def_cfa_offset 8
	.cfi_offset 5, -8
	movl	%esp, %ebp
	.cfi_def_cfa_register 5
	pushl	%edi
	pushl	%esi
	pushl	%ebx
	subl	$44, %esp
	.cfi_offset 7, -12
	.cfi_offset 6, -16
	.cfi_offset 3, -20
	movl	%ecx, -28(%ebp)
	movl	12(%ebp), %eax
	movl	%eax, (%esp)
	call	__ZSt7forwardIRK8heapNodeEOT_RNSt16remove_referenceIS3_E4typeE
	movl	%eax, %edi
	movl	8(%ebp), %esi
	movl	%esi, 4(%esp)
	movl	$32, (%esp)
	call	__ZnwjPv
	movl	%eax, %ebx
	testl	%ebx, %ebx
	je	L617
	movl	%edi, (%esp)
	movl	%ebx, %ecx
LEHB115:
	call	__ZN8heapNodeC1ERKS_
LEHE115:
	subl	$4, %esp
	jmp	L617
L616:
	movl	%eax, %edi
	movl	%esi, 4(%esp)
	movl	%ebx, (%esp)
	call	__ZdlPvS_
	movl	%edi, %eax
	movl	%eax, (%esp)
LEHB116:
	call	__Unwind_Resume
LEHE116:
L617:
	nop
	leal	-12(%ebp), %esp
	popl	%ebx
	.cfi_restore 3
	popl	%esi
	.cfi_restore 6
	popl	%edi
	.cfi_restore 7
	popl	%ebp
	.cfi_restore 5
	.cfi_def_cfa 4, 4
	ret	$8
	.cfi_endproc
LFE2940:
	.section	.gcc_except_table,"w"
LLSDA2940:
	.byte	0xff
	.byte	0xff
	.byte	0x1
	.uleb128 LLSDACSE2940-LLSDACSB2940
LLSDACSB2940:
	.uleb128 LEHB115-LFB2940
	.uleb128 LEHE115-LEHB115
	.uleb128 L616-LFB2940
	.uleb128 0
	.uleb128 LEHB116-LFB2940
	.uleb128 LEHE116-LEHB116
	.uleb128 0
	.uleb128 0
LLSDACSE2940:
	.section	.text$_ZN9__gnu_cxx13new_allocatorI8heapNodeE9constructIS1_JRKS1_EEEvPT_DpOT0_,"x"
	.linkonce discard
	.section	.text$_ZSt3maxIjERKT_S2_S2_,"x"
	.linkonce discard
	.globl	__ZSt3maxIjERKT_S2_S2_
	.def	__ZSt3maxIjERKT_S2_S2_;	.scl	2;	.type	32;	.endef
__ZSt3maxIjERKT_S2_S2_:
LFB2945:
	.cfi_startproc
	pushl	%ebp
	.cfi_def_cfa_offset 8
	.cfi_offset 5, -8
	movl	%esp, %ebp
	.cfi_def_cfa_register 5
	movl	8(%ebp), %eax
	movl	(%eax), %edx
	movl	12(%ebp), %eax
	movl	(%eax), %eax
	cmpl	%eax, %edx
	jnb	L619
	movl	12(%ebp), %eax
	jmp	L620
L619:
	movl	8(%ebp), %eax
L620:
	popl	%ebp
	.cfi_restore 5
	.cfi_def_cfa 4, 4
	ret
	.cfi_endproc
LFE2945:
	.section	.text$_ZNKSt6vectorI8heapNodeSaIS0_EE12_M_check_lenEjPKc,"x"
	.linkonce discard
	.align 2
	.globl	__ZNKSt6vectorI8heapNodeSaIS0_EE12_M_check_lenEjPKc
	.def	__ZNKSt6vectorI8heapNodeSaIS0_EE12_M_check_lenEjPKc;	.scl	2;	.type	32;	.endef
__ZNKSt6vectorI8heapNodeSaIS0_EE12_M_check_lenEjPKc:
LFB2944:
	.cfi_startproc
	pushl	%ebp
	.cfi_def_cfa_offset 8
	.cfi_offset 5, -8
	movl	%esp, %ebp
	.cfi_def_cfa_register 5
	pushl	%ebx
	subl	$52, %esp
	.cfi_offset 3, -12
	movl	%ecx, -28(%ebp)
	movl	-28(%ebp), %eax
	movl	%eax, %ecx
	call	__ZNKSt6vectorI8heapNodeSaIS0_EE8max_sizeEv
	movl	%eax, %ebx
	movl	-28(%ebp), %eax
	movl	%eax, %ecx
	call	__ZNKSt6vectorI8heapNodeSaIS0_EE4sizeEv
	movl	%ebx, %edx
	subl	%eax, %edx
	movl	8(%ebp), %eax
	cmpl	%eax, %edx
	setb	%al
	testb	%al, %al
	je	L622
	movl	12(%ebp), %eax
	movl	%eax, (%esp)
	call	__ZSt20__throw_length_errorPKc
L622:
	movl	-28(%ebp), %eax
	movl	%eax, %ecx
	call	__ZNKSt6vectorI8heapNodeSaIS0_EE4sizeEv
	movl	%eax, %ebx
	movl	-28(%ebp), %eax
	movl	%eax, %ecx
	call	__ZNKSt6vectorI8heapNodeSaIS0_EE4sizeEv
	movl	%eax, -16(%ebp)
	leal	8(%ebp), %eax
	movl	%eax, 4(%esp)
	leal	-16(%ebp), %eax
	movl	%eax, (%esp)
	call	__ZSt3maxIjERKT_S2_S2_
	movl	(%eax), %eax
	addl	%ebx, %eax
	movl	%eax, -12(%ebp)
	movl	-28(%ebp), %eax
	movl	%eax, %ecx
	call	__ZNKSt6vectorI8heapNodeSaIS0_EE4sizeEv
	cmpl	-12(%ebp), %eax
	ja	L623
	movl	-28(%ebp), %eax
	movl	%eax, %ecx
	call	__ZNKSt6vectorI8heapNodeSaIS0_EE8max_sizeEv
	cmpl	-12(%ebp), %eax
	jnb	L624
L623:
	movl	-28(%ebp), %eax
	movl	%eax, %ecx
	call	__ZNKSt6vectorI8heapNodeSaIS0_EE8max_sizeEv
	jmp	L625
L624:
	movl	-12(%ebp), %eax
L625:
	addl	$52, %esp
	popl	%ebx
	.cfi_restore 3
	popl	%ebp
	.cfi_restore 5
	.cfi_def_cfa 4, 4
	ret	$8
	.cfi_endproc
LFE2944:
	.section	.text$_ZNSt12_Vector_baseI8heapNodeSaIS0_EE11_M_allocateEj,"x"
	.linkonce discard
	.align 2
	.globl	__ZNSt12_Vector_baseI8heapNodeSaIS0_EE11_M_allocateEj
	.def	__ZNSt12_Vector_baseI8heapNodeSaIS0_EE11_M_allocateEj;	.scl	2;	.type	32;	.endef
__ZNSt12_Vector_baseI8heapNodeSaIS0_EE11_M_allocateEj:
LFB2946:
	.cfi_startproc
	pushl	%ebp
	.cfi_def_cfa_offset 8
	.cfi_offset 5, -8
	movl	%esp, %ebp
	.cfi_def_cfa_register 5
	subl	$40, %esp
	movl	%ecx, -12(%ebp)
	cmpl	$0, 8(%ebp)
	je	L628
	movl	-12(%ebp), %eax
	movl	8(%ebp), %edx
	movl	%edx, 4(%esp)
	movl	%eax, (%esp)
	call	__ZNSt16allocator_traitsISaI8heapNodeEE8allocateERS1_j
	jmp	L630
L628:
	movl	$0, %eax
L630:
	leave
	.cfi_restore 5
	.cfi_def_cfa 4, 4
	ret	$4
	.cfi_endproc
LFE2946:
	.section	.text$_ZSt34__uninitialized_move_if_noexcept_aIP8heapNodeS1_SaIS0_EET0_T_S4_S3_RT1_,"x"
	.linkonce discard
	.globl	__ZSt34__uninitialized_move_if_noexcept_aIP8heapNodeS1_SaIS0_EET0_T_S4_S3_RT1_
	.def	__ZSt34__uninitialized_move_if_noexcept_aIP8heapNodeS1_SaIS0_EET0_T_S4_S3_RT1_;	.scl	2;	.type	32;	.endef
__ZSt34__uninitialized_move_if_noexcept_aIP8heapNodeS1_SaIS0_EET0_T_S4_S3_RT1_:
LFB2947:
	.cfi_startproc
	pushl	%ebp
	.cfi_def_cfa_offset 8
	.cfi_offset 5, -8
	movl	%esp, %ebp
	.cfi_def_cfa_register 5
	pushl	%ebx
	subl	$20, %esp
	.cfi_offset 3, -12
	movl	12(%ebp), %eax
	movl	%eax, (%esp)
	call	__ZSt32__make_move_if_noexcept_iteratorI8heapNodeSt13move_iteratorIPS0_EET0_PT_
	movl	%eax, %ebx
	movl	8(%ebp), %eax
	movl	%eax, (%esp)
	call	__ZSt32__make_move_if_noexcept_iteratorI8heapNodeSt13move_iteratorIPS0_EET0_PT_
	movl	%eax, %edx
	movl	20(%ebp), %eax
	movl	%eax, 12(%esp)
	movl	16(%ebp), %eax
	movl	%eax, 8(%esp)
	movl	%ebx, 4(%esp)
	movl	%edx, (%esp)
	call	__ZSt22__uninitialized_copy_aISt13move_iteratorIP8heapNodeES2_S1_ET0_T_S5_S4_RSaIT1_E
	addl	$20, %esp
	popl	%ebx
	.cfi_restore 3
	popl	%ebp
	.cfi_restore 5
	.cfi_def_cfa 4, 4
	ret
	.cfi_endproc
LFE2947:
	.section	.text$_ZNSt16allocator_traitsISaI8heapNodeEE7destroyIS0_EEvRS1_PT_,"x"
	.linkonce discard
	.globl	__ZNSt16allocator_traitsISaI8heapNodeEE7destroyIS0_EEvRS1_PT_
	.def	__ZNSt16allocator_traitsISaI8heapNodeEE7destroyIS0_EEvRS1_PT_;	.scl	2;	.type	32;	.endef
__ZNSt16allocator_traitsISaI8heapNodeEE7destroyIS0_EEvRS1_PT_:
LFB2948:
	.cfi_startproc
	pushl	%ebp
	.cfi_def_cfa_offset 8
	.cfi_offset 5, -8
	movl	%esp, %ebp
	.cfi_def_cfa_register 5
	subl	$24, %esp
	movl	12(%ebp), %eax
	movl	%eax, (%esp)
	movl	8(%ebp), %ecx
	call	__ZN9__gnu_cxx13new_allocatorI8heapNodeE7destroyIS1_EEvPT_
	subl	$4, %esp
	nop
	leave
	.cfi_restore 5
	.cfi_def_cfa 4, 4
	ret
	.cfi_endproc
LFE2948:
	.section	.text$_ZNSt16allocator_traitsISaINSt7__cxx1112basic_stringIcSt11char_traitsIcESaIcEEEEE37select_on_container_copy_constructionERKS6_,"x"
	.linkonce discard
	.globl	__ZNSt16allocator_traitsISaINSt7__cxx1112basic_stringIcSt11char_traitsIcESaIcEEEEE37select_on_container_copy_constructionERKS6_
	.def	__ZNSt16allocator_traitsISaINSt7__cxx1112basic_stringIcSt11char_traitsIcESaIcEEEEE37select_on_container_copy_constructionERKS6_;	.scl	2;	.type	32;	.endef
__ZNSt16allocator_traitsISaINSt7__cxx1112basic_stringIcSt11char_traitsIcESaIcEEEEE37select_on_container_copy_constructionERKS6_:
LFB2958:
	.cfi_startproc
	pushl	%ebp
	.cfi_def_cfa_offset 8
	.cfi_offset 5, -8
	movl	%esp, %ebp
	.cfi_def_cfa_register 5
	subl	$24, %esp
	movl	12(%ebp), %eax
	movl	%eax, (%esp)
	movl	8(%ebp), %ecx
	call	__ZNSaINSt7__cxx1112basic_stringIcSt11char_traitsIcESaIcEEEEC1ERKS5_
	subl	$4, %esp
	movl	8(%ebp), %eax
	leave
	.cfi_restore 5
	.cfi_def_cfa 4, 4
	ret
	.cfi_endproc
LFE2958:
	.section	.text$_ZNSaINSt7__cxx1112basic_stringIcSt11char_traitsIcESaIcEEEEC2ERKS5_,"x"
	.linkonce discard
	.align 2
	.globl	__ZNSaINSt7__cxx1112basic_stringIcSt11char_traitsIcESaIcEEEEC2ERKS5_
	.def	__ZNSaINSt7__cxx1112basic_stringIcSt11char_traitsIcESaIcEEEEC2ERKS5_;	.scl	2;	.type	32;	.endef
__ZNSaINSt7__cxx1112basic_stringIcSt11char_traitsIcESaIcEEEEC2ERKS5_:
LFB2960:
	.cfi_startproc
	pushl	%ebp
	.cfi_def_cfa_offset 8
	.cfi_offset 5, -8
	movl	%esp, %ebp
	.cfi_def_cfa_register 5
	subl	$40, %esp
	movl	%ecx, -12(%ebp)
	movl	-12(%ebp), %eax
	movl	8(%ebp), %edx
	movl	%edx, (%esp)
	movl	%eax, %ecx
	call	__ZN9__gnu_cxx13new_allocatorINSt7__cxx1112basic_stringIcSt11char_traitsIcESaIcEEEEC2ERKS7_
	subl	$4, %esp
	nop
	leave
	.cfi_restore 5
	.cfi_def_cfa 4, 4
	ret	$4
	.cfi_endproc
LFE2960:
	.section	.text$_ZNSaINSt7__cxx1112basic_stringIcSt11char_traitsIcESaIcEEEEC1ERKS5_,"x"
	.linkonce discard
	.align 2
	.globl	__ZNSaINSt7__cxx1112basic_stringIcSt11char_traitsIcESaIcEEEEC1ERKS5_
	.def	__ZNSaINSt7__cxx1112basic_stringIcSt11char_traitsIcESaIcEEEEC1ERKS5_;	.scl	2;	.type	32;	.endef
__ZNSaINSt7__cxx1112basic_stringIcSt11char_traitsIcESaIcEEEEC1ERKS5_:
LFB2961:
	.cfi_startproc
	pushl	%ebp
	.cfi_def_cfa_offset 8
	.cfi_offset 5, -8
	movl	%esp, %ebp
	.cfi_def_cfa_register 5
	subl	$40, %esp
	movl	%ecx, -12(%ebp)
	movl	-12(%ebp), %eax
	movl	8(%ebp), %edx
	movl	%edx, (%esp)
	movl	%eax, %ecx
	call	__ZN9__gnu_cxx13new_allocatorINSt7__cxx1112basic_stringIcSt11char_traitsIcESaIcEEEEC2ERKS7_
	subl	$4, %esp
	nop
	leave
	.cfi_restore 5
	.cfi_def_cfa 4, 4
	ret	$4
	.cfi_endproc
LFE2961:
	.section	.text$_ZN9__gnu_cxx13new_allocatorINSt7__cxx1112basic_stringIcSt11char_traitsIcESaIcEEEED2Ev,"x"
	.linkonce discard
	.align 2
	.globl	__ZN9__gnu_cxx13new_allocatorINSt7__cxx1112basic_stringIcSt11char_traitsIcESaIcEEEED2Ev
	.def	__ZN9__gnu_cxx13new_allocatorINSt7__cxx1112basic_stringIcSt11char_traitsIcESaIcEEEED2Ev;	.scl	2;	.type	32;	.endef
__ZN9__gnu_cxx13new_allocatorINSt7__cxx1112basic_stringIcSt11char_traitsIcESaIcEEEED2Ev:
LFB2963:
	.cfi_startproc
	pushl	%ebp
	.cfi_def_cfa_offset 8
	.cfi_offset 5, -8
	movl	%esp, %ebp
	.cfi_def_cfa_register 5
	subl	$4, %esp
	movl	%ecx, -4(%ebp)
	nop
	leave
	.cfi_restore 5
	.cfi_def_cfa 4, 4
	ret
	.cfi_endproc
LFE2963:
	.section	.text$_ZNSt12_Vector_baseINSt7__cxx1112basic_stringIcSt11char_traitsIcESaIcEEESaIS5_EE12_Vector_implC1ERKS6_,"x"
	.linkonce discard
	.align 2
	.globl	__ZNSt12_Vector_baseINSt7__cxx1112basic_stringIcSt11char_traitsIcESaIcEEESaIS5_EE12_Vector_implC1ERKS6_
	.def	__ZNSt12_Vector_baseINSt7__cxx1112basic_stringIcSt11char_traitsIcESaIcEEESaIS5_EE12_Vector_implC1ERKS6_;	.scl	2;	.type	32;	.endef
__ZNSt12_Vector_baseINSt7__cxx1112basic_stringIcSt11char_traitsIcESaIcEEESaIS5_EE12_Vector_implC1ERKS6_:
LFB2967:
	.cfi_startproc
	pushl	%ebp
	.cfi_def_cfa_offset 8
	.cfi_offset 5, -8
	movl	%esp, %ebp
	.cfi_def_cfa_register 5
	subl	$40, %esp
	movl	%ecx, -12(%ebp)
	movl	-12(%ebp), %eax
	movl	8(%ebp), %edx
	movl	%edx, (%esp)
	movl	%eax, %ecx
	call	__ZNSaINSt7__cxx1112basic_stringIcSt11char_traitsIcESaIcEEEEC2ERKS5_
	subl	$4, %esp
	movl	-12(%ebp), %eax
	movl	$0, (%eax)
	movl	-12(%ebp), %eax
	movl	$0, 4(%eax)
	movl	-12(%ebp), %eax
	movl	$0, 8(%eax)
	nop
	leave
	.cfi_restore 5
	.cfi_def_cfa 4, 4
	ret	$4
	.cfi_endproc
LFE2967:
	.section	.text$_ZNSt12_Vector_baseINSt7__cxx1112basic_stringIcSt11char_traitsIcESaIcEEESaIS5_EE17_M_create_storageEj,"x"
	.linkonce discard
	.align 2
	.globl	__ZNSt12_Vector_baseINSt7__cxx1112basic_stringIcSt11char_traitsIcESaIcEEESaIS5_EE17_M_create_storageEj
	.def	__ZNSt12_Vector_baseINSt7__cxx1112basic_stringIcSt11char_traitsIcESaIcEEESaIS5_EE17_M_create_storageEj;	.scl	2;	.type	32;	.endef
__ZNSt12_Vector_baseINSt7__cxx1112basic_stringIcSt11char_traitsIcESaIcEEESaIS5_EE17_M_create_storageEj:
LFB2968:
	.cfi_startproc
	pushl	%ebp
	.cfi_def_cfa_offset 8
	.cfi_offset 5, -8
	movl	%esp, %ebp
	.cfi_def_cfa_register 5
	subl	$40, %esp
	movl	%ecx, -12(%ebp)
	movl	-12(%ebp), %eax
	movl	8(%ebp), %edx
	movl	%edx, (%esp)
	movl	%eax, %ecx
	call	__ZNSt12_Vector_baseINSt7__cxx1112basic_stringIcSt11char_traitsIcESaIcEEESaIS5_EE11_M_allocateEj
	subl	$4, %esp
	movl	%eax, %edx
	movl	-12(%ebp), %eax
	movl	%edx, (%eax)
	movl	-12(%ebp), %eax
	movl	(%eax), %edx
	movl	-12(%ebp), %eax
	movl	%edx, 4(%eax)
	movl	-12(%ebp), %eax
	movl	(%eax), %ecx
	movl	8(%ebp), %edx
	movl	%edx, %eax
	addl	%eax, %eax
	addl	%edx, %eax
	sall	$3, %eax
	leal	(%ecx,%eax), %edx
	movl	-12(%ebp), %eax
	movl	%edx, 8(%eax)
	nop
	leave
	.cfi_restore 5
	.cfi_def_cfa 4, 4
	ret	$4
	.cfi_endproc
LFE2968:
	.section	.text$_ZNSt12_Vector_baseINSt7__cxx1112basic_stringIcSt11char_traitsIcESaIcEEESaIS5_EE13_M_deallocateEPS5_j,"x"
	.linkonce discard
	.align 2
	.globl	__ZNSt12_Vector_baseINSt7__cxx1112basic_stringIcSt11char_traitsIcESaIcEEESaIS5_EE13_M_deallocateEPS5_j
	.def	__ZNSt12_Vector_baseINSt7__cxx1112basic_stringIcSt11char_traitsIcESaIcEEESaIS5_EE13_M_deallocateEPS5_j;	.scl	2;	.type	32;	.endef
__ZNSt12_Vector_baseINSt7__cxx1112basic_stringIcSt11char_traitsIcESaIcEEESaIS5_EE13_M_deallocateEPS5_j:
LFB2969:
	.cfi_startproc
	pushl	%ebp
	.cfi_def_cfa_offset 8
	.cfi_offset 5, -8
	movl	%esp, %ebp
	.cfi_def_cfa_register 5
	subl	$40, %esp
	movl	%ecx, -12(%ebp)
	cmpl	$0, 8(%ebp)
	je	L643
	movl	-12(%ebp), %eax
	movl	12(%ebp), %edx
	movl	%edx, 8(%esp)
	movl	8(%ebp), %edx
	movl	%edx, 4(%esp)
	movl	%eax, (%esp)
	call	__ZNSt16allocator_traitsISaINSt7__cxx1112basic_stringIcSt11char_traitsIcESaIcEEEEE10deallocateERS6_PS5_j
L643:
	nop
	leave
	.cfi_restore 5
	.cfi_def_cfa 4, 4
	ret	$8
	.cfi_endproc
LFE2969:
	.section	.text$_ZN9__gnu_cxx17__normal_iteratorIPKNSt7__cxx1112basic_stringIcSt11char_traitsIcESaIcEEESt6vectorIS6_SaIS6_EEEC1ERKS8_,"x"
	.linkonce discard
	.align 2
	.globl	__ZN9__gnu_cxx17__normal_iteratorIPKNSt7__cxx1112basic_stringIcSt11char_traitsIcESaIcEEESt6vectorIS6_SaIS6_EEEC1ERKS8_
	.def	__ZN9__gnu_cxx17__normal_iteratorIPKNSt7__cxx1112basic_stringIcSt11char_traitsIcESaIcEEESt6vectorIS6_SaIS6_EEEC1ERKS8_;	.scl	2;	.type	32;	.endef
__ZN9__gnu_cxx17__normal_iteratorIPKNSt7__cxx1112basic_stringIcSt11char_traitsIcESaIcEEESt6vectorIS6_SaIS6_EEEC1ERKS8_:
LFB2972:
	.cfi_startproc
	pushl	%ebp
	.cfi_def_cfa_offset 8
	.cfi_offset 5, -8
	movl	%esp, %ebp
	.cfi_def_cfa_register 5
	subl	$4, %esp
	movl	%ecx, -4(%ebp)
	movl	8(%ebp), %eax
	movl	(%eax), %edx
	movl	-4(%ebp), %eax
	movl	%edx, (%eax)
	nop
	leave
	.cfi_restore 5
	.cfi_def_cfa 4, 4
	ret	$4
	.cfi_endproc
LFE2972:
	.section	.text$_ZSt18uninitialized_copyIN9__gnu_cxx17__normal_iteratorIPKNSt7__cxx1112basic_stringIcSt11char_traitsIcESaIcEEESt6vectorIS7_SaIS7_EEEEPS7_ET0_T_SG_SF_,"x"
	.linkonce discard
	.globl	__ZSt18uninitialized_copyIN9__gnu_cxx17__normal_iteratorIPKNSt7__cxx1112basic_stringIcSt11char_traitsIcESaIcEEESt6vectorIS7_SaIS7_EEEEPS7_ET0_T_SG_SF_
	.def	__ZSt18uninitialized_copyIN9__gnu_cxx17__normal_iteratorIPKNSt7__cxx1112basic_stringIcSt11char_traitsIcESaIcEEESt6vectorIS7_SaIS7_EEEEPS7_ET0_T_SG_SF_;	.scl	2;	.type	32;	.endef
__ZSt18uninitialized_copyIN9__gnu_cxx17__normal_iteratorIPKNSt7__cxx1112basic_stringIcSt11char_traitsIcESaIcEEESt6vectorIS7_SaIS7_EEEEPS7_ET0_T_SG_SF_:
LFB2973:
	.cfi_startproc
	pushl	%ebp
	.cfi_def_cfa_offset 8
	.cfi_offset 5, -8
	movl	%esp, %ebp
	.cfi_def_cfa_register 5
	subl	$40, %esp
	movb	$1, -9(%ebp)
	movl	16(%ebp), %eax
	movl	%eax, 8(%esp)
	movl	12(%ebp), %eax
	movl	%eax, 4(%esp)
	movl	8(%ebp), %eax
	movl	%eax, (%esp)
	call	__ZNSt20__uninitialized_copyILb0EE13__uninit_copyIN9__gnu_cxx17__normal_iteratorIPKNSt7__cxx1112basic_stringIcSt11char_traitsIcESaIcEEESt6vectorIS9_SaIS9_EEEEPS9_EET0_T_SI_SH_
	leave
	.cfi_restore 5
	.cfi_def_cfa 4, 4
	ret
	.cfi_endproc
LFE2973:
	.section	.text$_ZSt8_DestroyIPNSt7__cxx1112basic_stringIcSt11char_traitsIcESaIcEEEEvT_S7_,"x"
	.linkonce discard
	.globl	__ZSt8_DestroyIPNSt7__cxx1112basic_stringIcSt11char_traitsIcESaIcEEEEvT_S7_
	.def	__ZSt8_DestroyIPNSt7__cxx1112basic_stringIcSt11char_traitsIcESaIcEEEEvT_S7_;	.scl	2;	.type	32;	.endef
__ZSt8_DestroyIPNSt7__cxx1112basic_stringIcSt11char_traitsIcESaIcEEEEvT_S7_:
LFB2974:
	.cfi_startproc
	pushl	%ebp
	.cfi_def_cfa_offset 8
	.cfi_offset 5, -8
	movl	%esp, %ebp
	.cfi_def_cfa_register 5
	subl	$24, %esp
	movl	12(%ebp), %eax
	movl	%eax, 4(%esp)
	movl	8(%ebp), %eax
	movl	%eax, (%esp)
	call	__ZNSt12_Destroy_auxILb0EE9__destroyIPNSt7__cxx1112basic_stringIcSt11char_traitsIcESaIcEEEEEvT_S9_
	nop
	leave
	.cfi_restore 5
	.cfi_def_cfa 4, 4
	ret
	.cfi_endproc
LFE2974:
	.section	.text$_ZNSt12_Vector_baseINSt7__cxx1112basic_stringIcSt11char_traitsIcESaIcEEESaIS5_EE12_Vector_implC1Ev,"x"
	.linkonce discard
	.align 2
	.globl	__ZNSt12_Vector_baseINSt7__cxx1112basic_stringIcSt11char_traitsIcESaIcEEESaIS5_EE12_Vector_implC1Ev
	.def	__ZNSt12_Vector_baseINSt7__cxx1112basic_stringIcSt11char_traitsIcESaIcEEESaIS5_EE12_Vector_implC1Ev;	.scl	2;	.type	32;	.endef
__ZNSt12_Vector_baseINSt7__cxx1112basic_stringIcSt11char_traitsIcESaIcEEESaIS5_EE12_Vector_implC1Ev:
LFB2977:
	.cfi_startproc
	pushl	%ebp
	.cfi_def_cfa_offset 8
	.cfi_offset 5, -8
	movl	%esp, %ebp
	.cfi_def_cfa_register 5
	subl	$24, %esp
	movl	%ecx, -12(%ebp)
	movl	-12(%ebp), %eax
	movl	%eax, %ecx
	call	__ZNSaINSt7__cxx1112basic_stringIcSt11char_traitsIcESaIcEEEEC2Ev
	movl	-12(%ebp), %eax
	movl	$0, (%eax)
	movl	-12(%ebp), %eax
	movl	$0, 4(%eax)
	movl	-12(%ebp), %eax
	movl	$0, 8(%eax)
	nop
	leave
	.cfi_restore 5
	.cfi_def_cfa 4, 4
	ret
	.cfi_endproc
LFE2977:
	.section	.text$_ZN9__gnu_cxx13new_allocatorINSt7__cxx1112basic_stringIcSt11char_traitsIcESaIcEEEE9constructIS6_JRKS6_EEEvPT_DpOT0_,"x"
	.linkonce discard
	.align 2
	.globl	__ZN9__gnu_cxx13new_allocatorINSt7__cxx1112basic_stringIcSt11char_traitsIcESaIcEEEE9constructIS6_JRKS6_EEEvPT_DpOT0_
	.def	__ZN9__gnu_cxx13new_allocatorINSt7__cxx1112basic_stringIcSt11char_traitsIcESaIcEEEE9constructIS6_JRKS6_EEEvPT_DpOT0_;	.scl	2;	.type	32;	.endef
__ZN9__gnu_cxx13new_allocatorINSt7__cxx1112basic_stringIcSt11char_traitsIcESaIcEEEE9constructIS6_JRKS6_EEEvPT_DpOT0_:
LFB2988:
	.cfi_startproc
	.cfi_personality 0,___gxx_personality_v0
	.cfi_lsda 0,LLSDA2988
	pushl	%ebp
	.cfi_def_cfa_offset 8
	.cfi_offset 5, -8
	movl	%esp, %ebp
	.cfi_def_cfa_register 5
	pushl	%edi
	pushl	%esi
	pushl	%ebx
	subl	$44, %esp
	.cfi_offset 7, -12
	.cfi_offset 6, -16
	.cfi_offset 3, -20
	movl	%ecx, -28(%ebp)
	movl	12(%ebp), %eax
	movl	%eax, (%esp)
	call	__ZSt7forwardIRKNSt7__cxx1112basic_stringIcSt11char_traitsIcESaIcEEEEOT_RNSt16remove_referenceIS8_E4typeE
	movl	%eax, %edi
	movl	8(%ebp), %esi
	movl	%esi, 4(%esp)
	movl	$24, (%esp)
	call	__ZnwjPv
	movl	%eax, %ebx
	testl	%ebx, %ebx
	je	L654
	movl	%edi, (%esp)
	movl	%ebx, %ecx
LEHB117:
	call	__ZNSt7__cxx1112basic_stringIcSt11char_traitsIcESaIcEEC1ERKS4_
LEHE117:
	subl	$4, %esp
	jmp	L654
L653:
	movl	%eax, %edi
	movl	%esi, 4(%esp)
	movl	%ebx, (%esp)
	call	__ZdlPvS_
	movl	%edi, %eax
	movl	%eax, (%esp)
LEHB118:
	call	__Unwind_Resume
LEHE118:
L654:
	nop
	leal	-12(%ebp), %esp
	popl	%ebx
	.cfi_restore 3
	popl	%esi
	.cfi_restore 6
	popl	%edi
	.cfi_restore 7
	popl	%ebp
	.cfi_restore 5
	.cfi_def_cfa 4, 4
	ret	$8
	.cfi_endproc
LFE2988:
	.section	.gcc_except_table,"w"
LLSDA2988:
	.byte	0xff
	.byte	0xff
	.byte	0x1
	.uleb128 LLSDACSE2988-LLSDACSB2988
LLSDACSB2988:
	.uleb128 LEHB117-LFB2988
	.uleb128 LEHE117-LEHB117
	.uleb128 L653-LFB2988
	.uleb128 0
	.uleb128 LEHB118-LFB2988
	.uleb128 LEHE118-LEHB118
	.uleb128 0
	.uleb128 0
LLSDACSE2988:
	.section	.text$_ZN9__gnu_cxx13new_allocatorINSt7__cxx1112basic_stringIcSt11char_traitsIcESaIcEEEE9constructIS6_JRKS6_EEEvPT_DpOT0_,"x"
	.linkonce discard
	.section	.text$_ZNKSt6vectorINSt7__cxx1112basic_stringIcSt11char_traitsIcESaIcEEESaIS5_EE12_M_check_lenEjPKc,"x"
	.linkonce discard
	.align 2
	.globl	__ZNKSt6vectorINSt7__cxx1112basic_stringIcSt11char_traitsIcESaIcEEESaIS5_EE12_M_check_lenEjPKc
	.def	__ZNKSt6vectorINSt7__cxx1112basic_stringIcSt11char_traitsIcESaIcEEESaIS5_EE12_M_check_lenEjPKc;	.scl	2;	.type	32;	.endef
__ZNKSt6vectorINSt7__cxx1112basic_stringIcSt11char_traitsIcESaIcEEESaIS5_EE12_M_check_lenEjPKc:
LFB2989:
	.cfi_startproc
	pushl	%ebp
	.cfi_def_cfa_offset 8
	.cfi_offset 5, -8
	movl	%esp, %ebp
	.cfi_def_cfa_register 5
	pushl	%ebx
	subl	$52, %esp
	.cfi_offset 3, -12
	movl	%ecx, -28(%ebp)
	movl	-28(%ebp), %eax
	movl	%eax, %ecx
	call	__ZNKSt6vectorINSt7__cxx1112basic_stringIcSt11char_traitsIcESaIcEEESaIS5_EE8max_sizeEv
	movl	%eax, %ebx
	movl	-28(%ebp), %eax
	movl	%eax, %ecx
	call	__ZNKSt6vectorINSt7__cxx1112basic_stringIcSt11char_traitsIcESaIcEEESaIS5_EE4sizeEv
	movl	%ebx, %edx
	subl	%eax, %edx
	movl	8(%ebp), %eax
	cmpl	%eax, %edx
	setb	%al
	testb	%al, %al
	je	L656
	movl	12(%ebp), %eax
	movl	%eax, (%esp)
	call	__ZSt20__throw_length_errorPKc
L656:
	movl	-28(%ebp), %eax
	movl	%eax, %ecx
	call	__ZNKSt6vectorINSt7__cxx1112basic_stringIcSt11char_traitsIcESaIcEEESaIS5_EE4sizeEv
	movl	%eax, %ebx
	movl	-28(%ebp), %eax
	movl	%eax, %ecx
	call	__ZNKSt6vectorINSt7__cxx1112basic_stringIcSt11char_traitsIcESaIcEEESaIS5_EE4sizeEv
	movl	%eax, -16(%ebp)
	leal	8(%ebp), %eax
	movl	%eax, 4(%esp)
	leal	-16(%ebp), %eax
	movl	%eax, (%esp)
	call	__ZSt3maxIjERKT_S2_S2_
	movl	(%eax), %eax
	addl	%ebx, %eax
	movl	%eax, -12(%ebp)
	movl	-28(%ebp), %eax
	movl	%eax, %ecx
	call	__ZNKSt6vectorINSt7__cxx1112basic_stringIcSt11char_traitsIcESaIcEEESaIS5_EE4sizeEv
	cmpl	-12(%ebp), %eax
	ja	L657
	movl	-28(%ebp), %eax
	movl	%eax, %ecx
	call	__ZNKSt6vectorINSt7__cxx1112basic_stringIcSt11char_traitsIcESaIcEEESaIS5_EE8max_sizeEv
	cmpl	-12(%ebp), %eax
	jnb	L658
L657:
	movl	-28(%ebp), %eax
	movl	%eax, %ecx
	call	__ZNKSt6vectorINSt7__cxx1112basic_stringIcSt11char_traitsIcESaIcEEESaIS5_EE8max_sizeEv
	jmp	L659
L658:
	movl	-12(%ebp), %eax
L659:
	addl	$52, %esp
	popl	%ebx
	.cfi_restore 3
	popl	%ebp
	.cfi_restore 5
	.cfi_def_cfa 4, 4
	ret	$8
	.cfi_endproc
LFE2989:
	.section	.text$_ZNSt12_Vector_baseINSt7__cxx1112basic_stringIcSt11char_traitsIcESaIcEEESaIS5_EE11_M_allocateEj,"x"
	.linkonce discard
	.align 2
	.globl	__ZNSt12_Vector_baseINSt7__cxx1112basic_stringIcSt11char_traitsIcESaIcEEESaIS5_EE11_M_allocateEj
	.def	__ZNSt12_Vector_baseINSt7__cxx1112basic_stringIcSt11char_traitsIcESaIcEEESaIS5_EE11_M_allocateEj;	.scl	2;	.type	32;	.endef
__ZNSt12_Vector_baseINSt7__cxx1112basic_stringIcSt11char_traitsIcESaIcEEESaIS5_EE11_M_allocateEj:
LFB2990:
	.cfi_startproc
	pushl	%ebp
	.cfi_def_cfa_offset 8
	.cfi_offset 5, -8
	movl	%esp, %ebp
	.cfi_def_cfa_register 5
	subl	$40, %esp
	movl	%ecx, -12(%ebp)
	cmpl	$0, 8(%ebp)
	je	L662
	movl	-12(%ebp), %eax
	movl	8(%ebp), %edx
	movl	%edx, 4(%esp)
	movl	%eax, (%esp)
	call	__ZNSt16allocator_traitsISaINSt7__cxx1112basic_stringIcSt11char_traitsIcESaIcEEEEE8allocateERS6_j
	jmp	L664
L662:
	movl	$0, %eax
L664:
	leave
	.cfi_restore 5
	.cfi_def_cfa 4, 4
	ret	$4
	.cfi_endproc
LFE2990:
	.section	.text$_ZSt34__uninitialized_move_if_noexcept_aIPNSt7__cxx1112basic_stringIcSt11char_traitsIcESaIcEEES6_SaIS5_EET0_T_S9_S8_RT1_,"x"
	.linkonce discard
	.globl	__ZSt34__uninitialized_move_if_noexcept_aIPNSt7__cxx1112basic_stringIcSt11char_traitsIcESaIcEEES6_SaIS5_EET0_T_S9_S8_RT1_
	.def	__ZSt34__uninitialized_move_if_noexcept_aIPNSt7__cxx1112basic_stringIcSt11char_traitsIcESaIcEEES6_SaIS5_EET0_T_S9_S8_RT1_;	.scl	2;	.type	32;	.endef
__ZSt34__uninitialized_move_if_noexcept_aIPNSt7__cxx1112basic_stringIcSt11char_traitsIcESaIcEEES6_SaIS5_EET0_T_S9_S8_RT1_:
LFB2991:
	.cfi_startproc
	pushl	%ebp
	.cfi_def_cfa_offset 8
	.cfi_offset 5, -8
	movl	%esp, %ebp
	.cfi_def_cfa_register 5
	pushl	%ebx
	subl	$20, %esp
	.cfi_offset 3, -12
	movl	12(%ebp), %eax
	movl	%eax, (%esp)
	call	__ZSt32__make_move_if_noexcept_iteratorINSt7__cxx1112basic_stringIcSt11char_traitsIcESaIcEEESt13move_iteratorIPS5_EET0_PT_
	movl	%eax, %ebx
	movl	8(%ebp), %eax
	movl	%eax, (%esp)
	call	__ZSt32__make_move_if_noexcept_iteratorINSt7__cxx1112basic_stringIcSt11char_traitsIcESaIcEEESt13move_iteratorIPS5_EET0_PT_
	movl	%eax, %edx
	movl	20(%ebp), %eax
	movl	%eax, 12(%esp)
	movl	16(%ebp), %eax
	movl	%eax, 8(%esp)
	movl	%ebx, 4(%esp)
	movl	%edx, (%esp)
	call	__ZSt22__uninitialized_copy_aISt13move_iteratorIPNSt7__cxx1112basic_stringIcSt11char_traitsIcESaIcEEEES7_S6_ET0_T_SA_S9_RSaIT1_E
	addl	$20, %esp
	popl	%ebx
	.cfi_restore 3
	popl	%ebp
	.cfi_restore 5
	.cfi_def_cfa 4, 4
	ret
	.cfi_endproc
LFE2991:
	.section	.text$_ZNSt16allocator_traitsISaINSt7__cxx1112basic_stringIcSt11char_traitsIcESaIcEEEEE7destroyIS5_EEvRS6_PT_,"x"
	.linkonce discard
	.globl	__ZNSt16allocator_traitsISaINSt7__cxx1112basic_stringIcSt11char_traitsIcESaIcEEEEE7destroyIS5_EEvRS6_PT_
	.def	__ZNSt16allocator_traitsISaINSt7__cxx1112basic_stringIcSt11char_traitsIcESaIcEEEEE7destroyIS5_EEvRS6_PT_;	.scl	2;	.type	32;	.endef
__ZNSt16allocator_traitsISaINSt7__cxx1112basic_stringIcSt11char_traitsIcESaIcEEEEE7destroyIS5_EEvRS6_PT_:
LFB2992:
	.cfi_startproc
	pushl	%ebp
	.cfi_def_cfa_offset 8
	.cfi_offset 5, -8
	movl	%esp, %ebp
	.cfi_def_cfa_register 5
	subl	$24, %esp
	movl	12(%ebp), %eax
	movl	%eax, (%esp)
	movl	8(%ebp), %ecx
	call	__ZN9__gnu_cxx13new_allocatorINSt7__cxx1112basic_stringIcSt11char_traitsIcESaIcEEEE7destroyIS6_EEvPT_
	subl	$4, %esp
	nop
	leave
	.cfi_restore 5
	.cfi_def_cfa 4, 4
	ret
	.cfi_endproc
LFE2992:
	.section	.text$_ZNSaI8heapNodeEC2Ev,"x"
	.linkonce discard
	.align 2
	.globl	__ZNSaI8heapNodeEC2Ev
	.def	__ZNSaI8heapNodeEC2Ev;	.scl	2;	.type	32;	.endef
__ZNSaI8heapNodeEC2Ev:
LFB3022:
	.cfi_startproc
	pushl	%ebp
	.cfi_def_cfa_offset 8
	.cfi_offset 5, -8
	movl	%esp, %ebp
	.cfi_def_cfa_register 5
	subl	$24, %esp
	movl	%ecx, -12(%ebp)
	movl	-12(%ebp), %eax
	movl	%eax, %ecx
	call	__ZN9__gnu_cxx13new_allocatorI8heapNodeEC2Ev
	nop
	leave
	.cfi_restore 5
	.cfi_def_cfa 4, 4
	ret
	.cfi_endproc
LFE3022:
	.section	.text$_ZN9__gnu_cxx13new_allocatorI8heapNodeED2Ev,"x"
	.linkonce discard
	.align 2
	.globl	__ZN9__gnu_cxx13new_allocatorI8heapNodeED2Ev
	.def	__ZN9__gnu_cxx13new_allocatorI8heapNodeED2Ev;	.scl	2;	.type	32;	.endef
__ZN9__gnu_cxx13new_allocatorI8heapNodeED2Ev:
LFB3025:
	.cfi_startproc
	pushl	%ebp
	.cfi_def_cfa_offset 8
	.cfi_offset 5, -8
	movl	%esp, %ebp
	.cfi_def_cfa_register 5
	subl	$4, %esp
	movl	%ecx, -4(%ebp)
	nop
	leave
	.cfi_restore 5
	.cfi_def_cfa 4, 4
	ret
	.cfi_endproc
LFE3025:
	.section	.text$_ZNSt16allocator_traitsISaI8heapNodeEE10deallocateERS1_PS0_j,"x"
	.linkonce discard
	.globl	__ZNSt16allocator_traitsISaI8heapNodeEE10deallocateERS1_PS0_j
	.def	__ZNSt16allocator_traitsISaI8heapNodeEE10deallocateERS1_PS0_j;	.scl	2;	.type	32;	.endef
__ZNSt16allocator_traitsISaI8heapNodeEE10deallocateERS1_PS0_j:
LFB3027:
	.cfi_startproc
	pushl	%ebp
	.cfi_def_cfa_offset 8
	.cfi_offset 5, -8
	movl	%esp, %ebp
	.cfi_def_cfa_register 5
	subl	$24, %esp
	movl	16(%ebp), %eax
	movl	%eax, 4(%esp)
	movl	12(%ebp), %eax
	movl	%eax, (%esp)
	movl	8(%ebp), %ecx
	call	__ZN9__gnu_cxx13new_allocatorI8heapNodeE10deallocateEPS1_j
	subl	$8, %esp
	nop
	leave
	.cfi_restore 5
	.cfi_def_cfa 4, 4
	ret
	.cfi_endproc
LFE3027:
	.section	.text$_ZNSt12_Destroy_auxILb0EE9__destroyIP8heapNodeEEvT_S4_,"x"
	.linkonce discard
	.globl	__ZNSt12_Destroy_auxILb0EE9__destroyIP8heapNodeEEvT_S4_
	.def	__ZNSt12_Destroy_auxILb0EE9__destroyIP8heapNodeEEvT_S4_;	.scl	2;	.type	32;	.endef
__ZNSt12_Destroy_auxILb0EE9__destroyIP8heapNodeEEvT_S4_:
LFB3028:
	.cfi_startproc
	pushl	%ebp
	.cfi_def_cfa_offset 8
	.cfi_offset 5, -8
	movl	%esp, %ebp
	.cfi_def_cfa_register 5
	subl	$24, %esp
L673:
	movl	8(%ebp), %eax
	cmpl	12(%ebp), %eax
	je	L674
	movl	8(%ebp), %eax
	movl	%eax, (%esp)
	call	__ZSt11__addressofI8heapNodeEPT_RS1_
	movl	%eax, (%esp)
	call	__ZSt8_DestroyI8heapNodeEvPT_
	addl	$32, 8(%ebp)
	jmp	L673
L674:
	nop
	leave
	.cfi_restore 5
	.cfi_def_cfa 4, 4
	ret
	.cfi_endproc
LFE3028:
	.section	.text$_ZNKSt6vectorI8heapNodeSaIS0_EE8max_sizeEv,"x"
	.linkonce discard
	.align 2
	.globl	__ZNKSt6vectorI8heapNodeSaIS0_EE8max_sizeEv
	.def	__ZNKSt6vectorI8heapNodeSaIS0_EE8max_sizeEv;	.scl	2;	.type	32;	.endef
__ZNKSt6vectorI8heapNodeSaIS0_EE8max_sizeEv:
LFB3029:
	.cfi_startproc
	pushl	%ebp
	.cfi_def_cfa_offset 8
	.cfi_offset 5, -8
	movl	%esp, %ebp
	.cfi_def_cfa_register 5
	subl	$40, %esp
	movl	%ecx, -12(%ebp)
	movl	-12(%ebp), %eax
	movl	%eax, %ecx
	call	__ZNKSt12_Vector_baseI8heapNodeSaIS0_EE19_M_get_Tp_allocatorEv
	movl	%eax, (%esp)
	call	__ZNSt16allocator_traitsISaI8heapNodeEE8max_sizeERKS1_
	leave
	.cfi_restore 5
	.cfi_def_cfa 4, 4
	ret
	.cfi_endproc
LFE3029:
	.section	.text$_ZNSt16allocator_traitsISaI8heapNodeEE8allocateERS1_j,"x"
	.linkonce discard
	.globl	__ZNSt16allocator_traitsISaI8heapNodeEE8allocateERS1_j
	.def	__ZNSt16allocator_traitsISaI8heapNodeEE8allocateERS1_j;	.scl	2;	.type	32;	.endef
__ZNSt16allocator_traitsISaI8heapNodeEE8allocateERS1_j:
LFB3030:
	.cfi_startproc
	pushl	%ebp
	.cfi_def_cfa_offset 8
	.cfi_offset 5, -8
	movl	%esp, %ebp
	.cfi_def_cfa_register 5
	subl	$24, %esp
	movl	$0, 4(%esp)
	movl	12(%ebp), %eax
	movl	%eax, (%esp)
	movl	8(%ebp), %ecx
	call	__ZN9__gnu_cxx13new_allocatorI8heapNodeE8allocateEjPKv
	subl	$8, %esp
	leave
	.cfi_restore 5
	.cfi_def_cfa 4, 4
	ret
	.cfi_endproc
LFE3030:
	.section	.text$_ZSt32__make_move_if_noexcept_iteratorI8heapNodeSt13move_iteratorIPS0_EET0_PT_,"x"
	.linkonce discard
	.globl	__ZSt32__make_move_if_noexcept_iteratorI8heapNodeSt13move_iteratorIPS0_EET0_PT_
	.def	__ZSt32__make_move_if_noexcept_iteratorI8heapNodeSt13move_iteratorIPS0_EET0_PT_;	.scl	2;	.type	32;	.endef
__ZSt32__make_move_if_noexcept_iteratorI8heapNodeSt13move_iteratorIPS0_EET0_PT_:
LFB3031:
	.cfi_startproc
	pushl	%ebp
	.cfi_def_cfa_offset 8
	.cfi_offset 5, -8
	movl	%esp, %ebp
	.cfi_def_cfa_register 5
